
P2_Animatronic_.elf:     file format elf32-avr

Sections:
Idx Name          Size      VMA       LMA       File off  Algn
  0 .data         00000552  00800100  000010c2  00001156  2**0
                  CONTENTS, ALLOC, LOAD, DATA
  1 .text         000010c2  00000000  00000000  00000094  2**1
                  CONTENTS, ALLOC, LOAD, READONLY, CODE
  2 .bss          00000026  00800652  00800652  000016a8  2**0
                  ALLOC
  3 .comment      00000030  00000000  00000000  000016a8  2**0
                  CONTENTS, READONLY
  4 .note.gnu.avr.deviceinfo 00000040  00000000  00000000  000016d8  2**2
                  CONTENTS, READONLY
  5 .debug_aranges 00000228  00000000  00000000  00001718  2**3
                  CONTENTS, READONLY, DEBUGGING
  6 .debug_info   0000300e  00000000  00000000  00001940  2**0
                  CONTENTS, READONLY, DEBUGGING
  7 .debug_abbrev 00000f4a  00000000  00000000  0000494e  2**0
                  CONTENTS, READONLY, DEBUGGING
  8 .debug_line   0000178c  00000000  00000000  00005898  2**0
                  CONTENTS, READONLY, DEBUGGING
  9 .debug_frame  000003f4  00000000  00000000  00007024  2**2
                  CONTENTS, READONLY, DEBUGGING
 10 .debug_str    00000760  00000000  00000000  00007418  2**0
                  CONTENTS, READONLY, DEBUGGING
 11 .debug_loc    000009c0  00000000  00000000  00007b78  2**0
                  CONTENTS, READONLY, DEBUGGING
 12 .debug_ranges 00000148  00000000  00000000  00008538  2**0
                  CONTENTS, READONLY, DEBUGGING

Disassembly of section .text:

00000000 <__vectors>:
       0:	0c 94 34 00 	jmp	0x68	; 0x68 <__ctors_end>
       4:	0c 94 51 00 	jmp	0xa2	; 0xa2 <__bad_interrupt>
       8:	0c 94 51 00 	jmp	0xa2	; 0xa2 <__bad_interrupt>
       c:	0c 94 51 00 	jmp	0xa2	; 0xa2 <__bad_interrupt>
      10:	0c 94 8c 00 	jmp	0x118	; 0x118 <__vector_4>
      14:	0c 94 51 00 	jmp	0xa2	; 0xa2 <__bad_interrupt>
      18:	0c 94 51 00 	jmp	0xa2	; 0xa2 <__bad_interrupt>
      1c:	0c 94 a8 01 	jmp	0x350	; 0x350 <__vector_7>
      20:	0c 94 51 00 	jmp	0xa2	; 0xa2 <__bad_interrupt>
      24:	0c 94 51 00 	jmp	0xa2	; 0xa2 <__bad_interrupt>
      28:	0c 94 51 00 	jmp	0xa2	; 0xa2 <__bad_interrupt>
      2c:	0c 94 51 00 	jmp	0xa2	; 0xa2 <__bad_interrupt>
      30:	0c 94 51 00 	jmp	0xa2	; 0xa2 <__bad_interrupt>
      34:	0c 94 51 00 	jmp	0xa2	; 0xa2 <__bad_interrupt>
      38:	0c 94 0b 02 	jmp	0x416	; 0x416 <__vector_14>
      3c:	0c 94 51 00 	jmp	0xa2	; 0xa2 <__bad_interrupt>
      40:	0c 94 51 00 	jmp	0xa2	; 0xa2 <__bad_interrupt>
      44:	0c 94 51 00 	jmp	0xa2	; 0xa2 <__bad_interrupt>
      48:	0c 94 5d 07 	jmp	0xeba	; 0xeba <__vector_18>
      4c:	0c 94 51 00 	jmp	0xa2	; 0xa2 <__bad_interrupt>
      50:	0c 94 51 00 	jmp	0xa2	; 0xa2 <__bad_interrupt>
      54:	0c 94 51 00 	jmp	0xa2	; 0xa2 <__bad_interrupt>
      58:	0c 94 51 00 	jmp	0xa2	; 0xa2 <__bad_interrupt>
      5c:	0c 94 51 00 	jmp	0xa2	; 0xa2 <__bad_interrupt>
      60:	0c 94 51 00 	jmp	0xa2	; 0xa2 <__bad_interrupt>
      64:	0c 94 51 00 	jmp	0xa2	; 0xa2 <__bad_interrupt>

00000068 <__ctors_end>:
      68:	11 24       	eor	r1, r1
      6a:	1f be       	out	0x3f, r1	; 63
      6c:	cf ef       	ldi	r28, 0xFF	; 255
      6e:	d8 e0       	ldi	r29, 0x08	; 8
      70:	de bf       	out	0x3e, r29	; 62
      72:	cd bf       	out	0x3d, r28	; 61

00000074 <__do_copy_data>:
      74:	16 e0       	ldi	r17, 0x06	; 6
      76:	a0 e0       	ldi	r26, 0x00	; 0
      78:	b1 e0       	ldi	r27, 0x01	; 1
      7a:	e2 ec       	ldi	r30, 0xC2	; 194
      7c:	f0 e1       	ldi	r31, 0x10	; 16
      7e:	02 c0       	rjmp	.+4      	; 0x84 <__do_copy_data+0x10>
      80:	05 90       	lpm	r0, Z+
      82:	0d 92       	st	X+, r0
      84:	a2 35       	cpi	r26, 0x52	; 82
      86:	b1 07       	cpc	r27, r17
      88:	d9 f7       	brne	.-10     	; 0x80 <__do_copy_data+0xc>

0000008a <__do_clear_bss>:
      8a:	26 e0       	ldi	r18, 0x06	; 6
      8c:	a2 e5       	ldi	r26, 0x52	; 82
      8e:	b6 e0       	ldi	r27, 0x06	; 6
      90:	01 c0       	rjmp	.+2      	; 0x94 <.do_clear_bss_start>

00000092 <.do_clear_bss_loop>:
      92:	1d 92       	st	X+, r1

00000094 <.do_clear_bss_start>:
      94:	a8 37       	cpi	r26, 0x78	; 120
      96:	b2 07       	cpc	r27, r18
      98:	e1 f7       	brne	.-8      	; 0x92 <.do_clear_bss_loop>
      9a:	0e 94 dd 00 	call	0x1ba	; 0x1ba <main>
      9e:	0c 94 5f 08 	jmp	0x10be	; 0x10be <_exit>

000000a2 <__bad_interrupt>:
      a2:	0c 94 00 00 	jmp	0	; 0x0 <__vectors>

000000a6 <ADC_Init>:
#include <avr/io.h>

void ADC_Init(void)
{
	// Referencia AVcc (5V) para mi nano
	ADMUX = (1 << REFS0);
      a6:	80 e4       	ldi	r24, 0x40	; 64
      a8:	80 93 7c 00 	sts	0x007C, r24	; 0x80007c <__TEXT_REGION_LENGTH__+0x7f807c>

	// Habilitar ADC + prescaler 128 (~125 kHz)
	ADCSRA = (1 << ADEN) |
      ac:	87 e8       	ldi	r24, 0x87	; 135
      ae:	80 93 7a 00 	sts	0x007A, r24	; 0x80007a <__TEXT_REGION_LENGTH__+0x7f807a>
      b2:	08 95       	ret

000000b4 <ADC_Read>:
}

uint16_t ADC_Read(uint8_t channel)
{
	// Limitar canal (0–7)
	channel &= 0x07;
      b4:	87 70       	andi	r24, 0x07	; 7

	// Mantener referencia y ajustar canal
	ADMUX = (ADMUX & 0xF8) | channel;
      b6:	ec e7       	ldi	r30, 0x7C	; 124
      b8:	f0 e0       	ldi	r31, 0x00	; 0
      ba:	90 81       	ld	r25, Z
      bc:	98 7f       	andi	r25, 0xF8	; 248
      be:	89 2b       	or	r24, r25
      c0:	80 83       	st	Z, r24

	// Iniciar conversión
	ADCSRA |= (1 << ADSC);
      c2:	ea e7       	ldi	r30, 0x7A	; 122
      c4:	f0 e0       	ldi	r31, 0x00	; 0
      c6:	80 81       	ld	r24, Z
      c8:	80 64       	ori	r24, 0x40	; 64
      ca:	80 83       	st	Z, r24

	// Esperar fin
	while (ADCSRA & (1 << ADSC));
      cc:	80 91 7a 00 	lds	r24, 0x007A	; 0x80007a <__TEXT_REGION_LENGTH__+0x7f807a>
      d0:	86 fd       	sbrc	r24, 6
      d2:	fc cf       	rjmp	.-8      	; 0xcc <ADC_Read+0x18>

	return ADC;
      d4:	80 91 78 00 	lds	r24, 0x0078	; 0x800078 <__TEXT_REGION_LENGTH__+0x7f8078>
      d8:	90 91 79 00 	lds	r25, 0x0079	; 0x800079 <__TEXT_REGION_LENGTH__+0x7f8079>
      dc:	08 95       	ret

000000de <EEPROM_Init>:
void EEPROM_Init(void)
{
	//mini declaración de entrada
	
	//=== Leds de estado
	DDRB |= (1 << DDB0);
      de:	84 b1       	in	r24, 0x04	; 4
      e0:	81 60       	ori	r24, 0x01	; 1
      e2:	84 b9       	out	0x04, r24	; 4
	DDRD |= (1 << DDD7);
      e4:	8a b1       	in	r24, 0x0a	; 10
      e6:	80 68       	ori	r24, 0x80	; 128
      e8:	8a b9       	out	0x0a, r24	; 10

	PORTB &= ~(1 << PORTB0);
      ea:	85 b1       	in	r24, 0x05	; 5
      ec:	8e 7f       	andi	r24, 0xFE	; 254
      ee:	85 b9       	out	0x05, r24	; 5
	PORTD &= ~(1 << PORTD7);
      f0:	8b b1       	in	r24, 0x0b	; 11
      f2:	8f 77       	andi	r24, 0x7F	; 127
      f4:	8b b9       	out	0x0b, r24	; 11
	
	//boton en pc0
	DDRC &= ~(1 << DDC0);// Se le aplica cero por ser entrada 
      f6:	87 b1       	in	r24, 0x07	; 7
      f8:	8e 7f       	andi	r24, 0xFE	; 254
      fa:	87 b9       	out	0x07, r24	; 7
	//pull ups 
	PORTC |= (1 << PORTC0);
      fc:	88 b1       	in	r24, 0x08	; 8
      fe:	81 60       	ori	r24, 0x01	; 1
     100:	88 b9       	out	0x08, r24	; 8
	
	PCICR |= (1 << PCIE1);//Pinchange Interrupt
     102:	e8 e6       	ldi	r30, 0x68	; 104
     104:	f0 e0       	ldi	r31, 0x00	; 0
     106:	80 81       	ld	r24, Z
     108:	82 60       	ori	r24, 0x02	; 2
     10a:	80 83       	st	Z, r24
	PCMSK1 |= (1 << PCINT8);//pc0 --pcint8
     10c:	ec e6       	ldi	r30, 0x6C	; 108
     10e:	f0 e0       	ldi	r31, 0x00	; 0
     110:	80 81       	ld	r24, Z
     112:	81 60       	ori	r24, 0x01	; 1
     114:	80 83       	st	Z, r24
     116:	08 95       	ret

00000118 <__vector_4>:
//rutina de interrśpción para el botonazo. 
//Versión completamente funcional del botón, este solo guarda cuando se trabaja en modo manual, pero funciona y guarda. 

//Cambio de posición de botón de pb5 a pc0, debido a picos de voltaje al conectar los servos.
ISR(PCINT1_vect)
{
     118:	1f 92       	push	r1
     11a:	0f 92       	push	r0
     11c:	0f b6       	in	r0, 0x3f	; 63
     11e:	0f 92       	push	r0
     120:	11 24       	eor	r1, r1
     122:	2f 93       	push	r18
     124:	8f 93       	push	r24
     126:	9f 93       	push	r25
	if (!(PINC & (1 << PINC0)))
     128:	30 99       	sbic	0x06, 0	; 6
     12a:	0e c0       	rjmp	.+28     	; 0x148 <__vector_4+0x30>
	#else
		//round up by default
		__ticks_dc = (uint32_t)(ceil(fabs(__tmp)));
	#endif

	__builtin_avr_delay_cycles(__ticks_dc);
     12c:	2f ef       	ldi	r18, 0xFF	; 255
     12e:	89 ef       	ldi	r24, 0xF9	; 249
     130:	90 e0       	ldi	r25, 0x00	; 0
     132:	21 50       	subi	r18, 0x01	; 1
     134:	80 40       	sbci	r24, 0x00	; 0
     136:	90 40       	sbci	r25, 0x00	; 0
     138:	e1 f7       	brne	.-8      	; 0x132 <__vector_4+0x1a>
     13a:	00 c0       	rjmp	.+0      	; 0x13c <__vector_4+0x24>
     13c:	00 00       	nop
	{
		_delay_ms(20);

		if (!(PINC & (1 << PINC0)))
     13e:	30 99       	sbic	0x06, 0	; 6
     140:	03 c0       	rjmp	.+6      	; 0x148 <__vector_4+0x30>
		{
			saveFlag = 1;
     142:	81 e0       	ldi	r24, 0x01	; 1
     144:	80 93 52 06 	sts	0x0652, r24	; 0x800652 <__data_end>
		}
	}
}
     148:	9f 91       	pop	r25
     14a:	8f 91       	pop	r24
     14c:	2f 91       	pop	r18
     14e:	0f 90       	pop	r0
     150:	0f be       	out	0x3f, r0	; 63
     152:	0f 90       	pop	r0
     154:	1f 90       	pop	r1
     156:	18 95       	reti

00000158 <EEPROM_SaveServos>:

//================ SAVE =================//
void EEPROM_SaveServos(void)
{
     158:	cf 93       	push	r28
     15a:	df 93       	push	r29
	
	//================ ENCENDER LEDS =================//
//leds de estado
	PORTB |= (1 << PORTB0);
     15c:	85 b1       	in	r24, 0x05	; 5
     15e:	81 60       	ori	r24, 0x01	; 1
     160:	85 b9       	out	0x05, r24	; 5
	PORTD |= (1 << PORTD7);
     162:	8b b1       	in	r24, 0x0b	; 11
     164:	80 68       	ori	r24, 0x80	; 128
     166:	8b b9       	out	0x0b, r24	; 11
	
	// las cocalidades de la 24 a 29 se utilizarįn para la modificación manual de los potenciometros y su posterior guardado en eeprom. 
	//Esto solo guarda lo de 1 combinación de posiciones. Seria la combinación nuemero 5 que aparece en el menś de UART. 
	eeprom_update_byte((uint8_t*)24, servoAng[0]);
     168:	c8 e0       	ldi	r28, 0x08	; 8
     16a:	d1 e0       	ldi	r29, 0x01	; 1
     16c:	68 81       	ld	r22, Y
     16e:	88 e1       	ldi	r24, 0x18	; 24
     170:	90 e0       	ldi	r25, 0x00	; 0
     172:	0e 94 4d 08 	call	0x109a	; 0x109a <eeprom_update_byte>
	eeprom_update_byte((uint8_t*)25, servoAng[1]);
     176:	69 81       	ldd	r22, Y+1	; 0x01
     178:	89 e1       	ldi	r24, 0x19	; 25
     17a:	90 e0       	ldi	r25, 0x00	; 0
     17c:	0e 94 4d 08 	call	0x109a	; 0x109a <eeprom_update_byte>

	eeprom_update_byte((uint8_t*)26, servoAng[2]);
     180:	6a 81       	ldd	r22, Y+2	; 0x02
     182:	8a e1       	ldi	r24, 0x1A	; 26
     184:	90 e0       	ldi	r25, 0x00	; 0
     186:	0e 94 4d 08 	call	0x109a	; 0x109a <eeprom_update_byte>
	eeprom_update_byte((uint8_t*)27, servoAng[3]);
     18a:	6b 81       	ldd	r22, Y+3	; 0x03
     18c:	8b e1       	ldi	r24, 0x1B	; 27
     18e:	90 e0       	ldi	r25, 0x00	; 0
     190:	0e 94 4d 08 	call	0x109a	; 0x109a <eeprom_update_byte>

	eeprom_update_byte((uint8_t*)28, servoAng[4]);
     194:	6c 81       	ldd	r22, Y+4	; 0x04
     196:	8c e1       	ldi	r24, 0x1C	; 28
     198:	90 e0       	ldi	r25, 0x00	; 0
     19a:	0e 94 4d 08 	call	0x109a	; 0x109a <eeprom_update_byte>
	eeprom_update_byte((uint8_t*)29, servoAng[5]);
     19e:	6d 81       	ldd	r22, Y+5	; 0x05
     1a0:	8d e1       	ldi	r24, 0x1D	; 29
     1a2:	90 e0       	ldi	r25, 0x00	; 0
     1a4:	0e 94 4d 08 	call	0x109a	; 0x109a <eeprom_update_byte>
	//luego de guardar
	//================ APAGAR LEDS =================//

	PORTB &= ~(1 << PORTB0);
     1a8:	85 b1       	in	r24, 0x05	; 5
     1aa:	8e 7f       	andi	r24, 0xFE	; 254
     1ac:	85 b9       	out	0x05, r24	; 5
	PORTD &= ~(1 << PORTD7);
     1ae:	8b b1       	in	r24, 0x0b	; 11
     1b0:	8f 77       	andi	r24, 0x7F	; 127
     1b2:	8b b9       	out	0x0b, r24	; 11
     1b4:	df 91       	pop	r29
     1b6:	cf 91       	pop	r28
     1b8:	08 95       	ret

000001ba <main>:

// Main Function
//***********************************  MAIN   **************************************//
int main(void)
{
	cli();
     1ba:	f8 94       	cli
	DDRD |= (1 << DDD7);
	PORTD &= ~(1<<PORTD7)
	*/
	
	//inicializaciónes 
	UART_Init();//Comunicación UART
     1bc:	0e 94 8b 03 	call	0x716	; 0x716 <UART_Init>
	PWM0_Init();//Control de Timer 0
     1c0:	0e 94 00 02 	call	0x400	; 0x400 <PWM0_Init>
	PWM1_Init();//Control de Timer 1
     1c4:	0e 94 73 01 	call	0x2e6	; 0x2e6 <PWM1_Init>
	PWM2_Init();//Control de Timer 2
     1c8:	0e 94 97 01 	call	0x32e	; 0x32e <PWM2_Init>
	ADC_Init();//ADC
     1cc:	0e 94 53 00 	call	0xa6	; 0xa6 <ADC_Init>
	EEPROM_Init();// guardar en eprom con boton pb5
     1d0:	0e 94 6f 00 	call	0xde	; 0xde <EEPROM_Init>
	
	sei();// BUENAS CONSTUMBRES
     1d4:	78 94       	sei

	printMenu();
     1d6:	0e 94 c6 03 	call	0x78c	; 0x78c <printMenu>
			servoAng[4],
			servoAng[5]
			);
		}
		*/
		if(saveFlag)
     1da:	80 91 52 06 	lds	r24, 0x0652	; 0x800652 <__data_end>
     1de:	88 23       	and	r24, r24
     1e0:	21 f0       	breq	.+8      	; 0x1ea <main+0x30>
		{
			saveFlag = 0;//apago la flag para que solo guarde una vez y sale
     1e2:	10 92 52 06 	sts	0x0652, r1	; 0x800652 <__data_end>

			EEPROM_SaveServos();
     1e6:	0e 94 ac 00 	call	0x158	; 0x158 <EEPROM_SaveServos>
		}
		
		//================ UART =================//

		if (commandReady)
     1ea:	80 91 58 06 	lds	r24, 0x0658	; 0x800658 <commandReady>
     1ee:	88 23       	and	r24, r24
     1f0:	21 f0       	breq	.+8      	; 0x1fa <main+0x40>
		{
			commandReady = 0;
     1f2:	10 92 58 06 	sts	0x0658, r1	; 0x800658 <commandReady>

			processCommand();
     1f6:	0e 94 f3 03 	call	0x7e6	; 0x7e6 <processCommand>
		}

		//================ CONTROL ADC =================//

		if (modo == 3)
     1fa:	80 91 59 06 	lds	r24, 0x0659	; 0x800659 <modo>
     1fe:	83 30       	cpi	r24, 0x03	; 3
     200:	61 f7       	brne	.-40     	; 0x1da <main+0x20>
		{
			//========= LEER ADC =========//

			adc0 = ADC_Read(2); // PC2
     202:	82 e0       	ldi	r24, 0x02	; 2
     204:	0e 94 5a 00 	call	0xb4	; 0xb4 <ADC_Read>
     208:	ec 01       	movw	r28, r24
			adc1 = ADC_Read(3); // PC3
     20a:	83 e0       	ldi	r24, 0x03	; 3
     20c:	0e 94 5a 00 	call	0xb4	; 0xb4 <ADC_Read>
     210:	5c 01       	movw	r10, r24
			adc2 = ADC_Read(4); // PC4
     212:	84 e0       	ldi	r24, 0x04	; 4
     214:	0e 94 5a 00 	call	0xb4	; 0xb4 <ADC_Read>
     218:	6c 01       	movw	r12, r24
			adc3 = ADC_Read(5); // PC5
     21a:	85 e0       	ldi	r24, 0x05	; 5
     21c:	0e 94 5a 00 	call	0xb4	; 0xb4 <ADC_Read>
     220:	7c 01       	movw	r14, r24
			adc4 = ADC_Read(6); // A6
     222:	86 e0       	ldi	r24, 0x06	; 6
     224:	0e 94 5a 00 	call	0xb4	; 0xb4 <ADC_Read>
     228:	8c 01       	movw	r16, r24
			adc5 = ADC_Read(7); // A7
     22a:	87 e0       	ldi	r24, 0x07	; 7
     22c:	0e 94 5a 00 	call	0xb4	; 0xb4 <ADC_Read>
     230:	4c 01       	movw	r8, r24

			//========= ADC para ANGULO =========// esto es lo de reproducción desde servo memory
			
			servoAng[0] = ADCToAngle(adc0);
     232:	ce 01       	movw	r24, r28
     234:	0e 94 7e 03 	call	0x6fc	; 0x6fc <ADCToAngle>
     238:	c8 e0       	ldi	r28, 0x08	; 8
     23a:	d1 e0       	ldi	r29, 0x01	; 1
     23c:	88 83       	st	Y, r24
			servoAng[1] = ADCToAngle(adc1);
     23e:	c5 01       	movw	r24, r10
     240:	0e 94 7e 03 	call	0x6fc	; 0x6fc <ADCToAngle>
     244:	89 83       	std	Y+1, r24	; 0x01

			servoAng[2] = ADCToAngle(adc2);
     246:	c6 01       	movw	r24, r12
     248:	0e 94 7e 03 	call	0x6fc	; 0x6fc <ADCToAngle>
     24c:	8a 83       	std	Y+2, r24	; 0x02
			servoAng[3] = ADCToAngle(adc3);
     24e:	c7 01       	movw	r24, r14
     250:	0e 94 7e 03 	call	0x6fc	; 0x6fc <ADCToAngle>
     254:	8b 83       	std	Y+3, r24	; 0x03

			servoAng[4] = ADCToAngle(adc4);
     256:	c8 01       	movw	r24, r16
     258:	0e 94 7e 03 	call	0x6fc	; 0x6fc <ADCToAngle>
     25c:	8c 83       	std	Y+4, r24	; 0x04
			servoAng[5] = ADCToAngle(adc5);
     25e:	c4 01       	movw	r24, r8
     260:	0e 94 7e 03 	call	0x6fc	; 0x6fc <ADCToAngle>
     264:	8d 83       	std	Y+5, r24	; 0x05

			//========= aplicar el pwm =========// esto tambien va de la mano con la parte de eeprom

			ServoMemory_ApplyPWM();
     266:	0e 94 fe 02 	call	0x5fc	; 0x5fc <ServoMemory_ApplyPWM>
     26a:	b7 cf       	rjmp	.-146    	; 0x1da <main+0x20>

0000026c <Pose_GetBaseAddress>:

//================ DIRECCION BASE =================//

uint8_t Pose_GetBaseAddress(uint8_t pose)
{
	return (pose - 1) * 6;
     26c:	90 e0       	ldi	r25, 0x00	; 0
     26e:	01 97       	sbiw	r24, 0x01	; 1
     270:	98 2f       	mov	r25, r24
     272:	99 0f       	add	r25, r25
     274:	98 0f       	add	r25, r24
     276:	89 2f       	mov	r24, r25
     278:	88 0f       	add	r24, r24
}
     27a:	08 95       	ret

0000027c <Pose_Save>:
uint8_t s3,
uint8_t s4,
uint8_t s5,
uint8_t s6
)
{
     27c:	cf 92       	push	r12
     27e:	df 92       	push	r13
     280:	ef 92       	push	r14
     282:	ff 92       	push	r15
     284:	0f 93       	push	r16
     286:	1f 93       	push	r17
     288:	cf 93       	push	r28
     28a:	df 93       	push	r29
     28c:	d6 2e       	mov	r13, r22
     28e:	f4 2e       	mov	r15, r20
     290:	12 2f       	mov	r17, r18
	uint8_t base;

	base = Pose_GetBaseAddress(pose);
     292:	0e 94 36 01 	call	0x26c	; 0x26c <Pose_GetBaseAddress>

	//================ GUARDAR EEPROM =================//

	eeprom_update_byte((uint8_t*)(base + 0), s1);
     296:	c8 2f       	mov	r28, r24
     298:	d0 e0       	ldi	r29, 0x00	; 0
     29a:	6d 2d       	mov	r22, r13
     29c:	ce 01       	movw	r24, r28
     29e:	0e 94 4d 08 	call	0x109a	; 0x109a <eeprom_update_byte>
	eeprom_update_byte((uint8_t*)(base + 1), s2);
     2a2:	6f 2d       	mov	r22, r15
     2a4:	ce 01       	movw	r24, r28
     2a6:	01 96       	adiw	r24, 0x01	; 1
     2a8:	0e 94 4d 08 	call	0x109a	; 0x109a <eeprom_update_byte>

	eeprom_update_byte((uint8_t*)(base + 2), s3);
     2ac:	61 2f       	mov	r22, r17
     2ae:	ce 01       	movw	r24, r28
     2b0:	02 96       	adiw	r24, 0x02	; 2
     2b2:	0e 94 4d 08 	call	0x109a	; 0x109a <eeprom_update_byte>
	eeprom_update_byte((uint8_t*)(base + 3), s4);
     2b6:	60 2f       	mov	r22, r16
     2b8:	ce 01       	movw	r24, r28
     2ba:	03 96       	adiw	r24, 0x03	; 3
     2bc:	0e 94 4d 08 	call	0x109a	; 0x109a <eeprom_update_byte>

	eeprom_update_byte((uint8_t*)(base + 4), s5);
     2c0:	6e 2d       	mov	r22, r14
     2c2:	ce 01       	movw	r24, r28
     2c4:	04 96       	adiw	r24, 0x04	; 4
     2c6:	0e 94 4d 08 	call	0x109a	; 0x109a <eeprom_update_byte>
	eeprom_update_byte((uint8_t*)(base + 5), s6);
     2ca:	6c 2d       	mov	r22, r12
     2cc:	ce 01       	movw	r24, r28
     2ce:	05 96       	adiw	r24, 0x05	; 5
     2d0:	0e 94 4d 08 	call	0x109a	; 0x109a <eeprom_update_byte>
     2d4:	df 91       	pop	r29
     2d6:	cf 91       	pop	r28
     2d8:	1f 91       	pop	r17
     2da:	0f 91       	pop	r16
     2dc:	ff 90       	pop	r15
     2de:	ef 90       	pop	r14
     2e0:	df 90       	pop	r13
     2e2:	cf 90       	pop	r12
     2e4:	08 95       	ret

000002e6 <PWM1_Init>:
*/

void PWM1_Init(void)
{
	// PB1 (OC1A) y PB2 (OC1B) como salida
	DDRB |= (1 << PORTB1) | (1 << PORTB2);
     2e6:	84 b1       	in	r24, 0x04	; 4
     2e8:	86 60       	ori	r24, 0x06	; 6
     2ea:	84 b9       	out	0x04, r24	; 4

	// Fast PWM, TOP = ICR1
	TCCR1A = (1 << COM1A1) | (1 << COM1B1) | (1 << WGM11);//activa salida PWM en OC1A
     2ec:	82 ea       	ldi	r24, 0xA2	; 162
     2ee:	80 93 80 00 	sts	0x0080, r24	; 0x800080 <__TEXT_REGION_LENGTH__+0x7f8080>
	TCCR1B = (1 << WGM12) | (1 << WGM13) | (1 << CS11);// modo Fast PWM con ICR1 y cs11 prescaler = 8
     2f2:	8a e1       	ldi	r24, 0x1A	; 26
     2f4:	80 93 81 00 	sts	0x0081, r24	; 0x800081 <__TEXT_REGION_LENGTH__+0x7f8081>

	// 50 Hz aproximadamente da 20ms
	ICR1 = 39999;
     2f8:	8f e3       	ldi	r24, 0x3F	; 63
     2fa:	9c e9       	ldi	r25, 0x9C	; 156
     2fc:	90 93 87 00 	sts	0x0087, r25	; 0x800087 <__TEXT_REGION_LENGTH__+0x7f8087>
     300:	80 93 86 00 	sts	0x0086, r24	; 0x800086 <__TEXT_REGION_LENGTH__+0x7f8086>
	Para que quede en el grado necesario para que se vea como mi 0. 
	
	3000 es 45 y 4000 es 180, 2000 es 0 
	*/
	
	OCR1A = 3000;
     304:	88 eb       	ldi	r24, 0xB8	; 184
     306:	9b e0       	ldi	r25, 0x0B	; 11
     308:	90 93 89 00 	sts	0x0089, r25	; 0x800089 <__TEXT_REGION_LENGTH__+0x7f8089>
     30c:	80 93 88 00 	sts	0x0088, r24	; 0x800088 <__TEXT_REGION_LENGTH__+0x7f8088>
	OCR1B = 3000;
     310:	90 93 8b 00 	sts	0x008B, r25	; 0x80008b <__TEXT_REGION_LENGTH__+0x7f808b>
     314:	80 93 8a 00 	sts	0x008A, r24	; 0x80008a <__TEXT_REGION_LENGTH__+0x7f808a>
     318:	08 95       	ret

0000031a <PWM1_SetDuty>:
}
void PWM1_SetDuty(uint16_t duty)
{
	OCR1A = duty;//mov, servo
     31a:	90 93 89 00 	sts	0x0089, r25	; 0x800089 <__TEXT_REGION_LENGTH__+0x7f8089>
     31e:	80 93 88 00 	sts	0x0088, r24	; 0x800088 <__TEXT_REGION_LENGTH__+0x7f8088>
     322:	08 95       	ret

00000324 <PWM1_SetDuty2>:
}


void PWM1_SetDuty2(uint16_t duty)
{
	OCR1B = duty;
     324:	90 93 8b 00 	sts	0x008B, r25	; 0x80008b <__TEXT_REGION_LENGTH__+0x7f808b>
     328:	80 93 8a 00 	sts	0x008A, r24	; 0x80008a <__TEXT_REGION_LENGTH__+0x7f808a>
     32c:	08 95       	ret

0000032e <PWM2_Init>:
volatile uint16_t counter2 = 0;

void PWM2_Init(void)
{
    // PD3 y PB3 salida
    DDRD |= (1 << DDD3);
     32e:	8a b1       	in	r24, 0x0a	; 10
     330:	88 60       	ori	r24, 0x08	; 8
     332:	8a b9       	out	0x0a, r24	; 10
    DDRB |= (1 << DDB3);
     334:	84 b1       	in	r24, 0x04	; 4
     336:	88 60       	ori	r24, 0x08	; 8
     338:	84 b9       	out	0x04, r24	; 4

    // CTC mode
    TCCR2A = (1 << WGM21);
     33a:	82 e0       	ldi	r24, 0x02	; 2
     33c:	80 93 b0 00 	sts	0x00B0, r24	; 0x8000b0 <__TEXT_REGION_LENGTH__+0x7f80b0>

    // prescaler 8
    TCCR2B = (1 << CS21);
     340:	80 93 b1 00 	sts	0x00B1, r24	; 0x8000b1 <__TEXT_REGION_LENGTH__+0x7f80b1>
    OCR2A = 39

    40 ticks = 20us
    */

    OCR2A = 39;
     344:	97 e2       	ldi	r25, 0x27	; 39
     346:	90 93 b3 00 	sts	0x00B3, r25	; 0x8000b3 <__TEXT_REGION_LENGTH__+0x7f80b3>

    // habilitar compare match
    TIMSK2 = (1 << OCIE2A);
     34a:	80 93 70 00 	sts	0x0070, r24	; 0x800070 <__TEXT_REGION_LENGTH__+0x7f8070>
     34e:	08 95       	ret

00000350 <__vector_7>:
}


ISR(TIMER2_COMPA_vect)
{
     350:	1f 92       	push	r1
     352:	0f 92       	push	r0
     354:	0f b6       	in	r0, 0x3f	; 63
     356:	0f 92       	push	r0
     358:	11 24       	eor	r1, r1
     35a:	2f 93       	push	r18
     35c:	3f 93       	push	r19
     35e:	8f 93       	push	r24
     360:	9f 93       	push	r25
    counter2++;
     362:	80 91 53 06 	lds	r24, 0x0653	; 0x800653 <counter2>
     366:	90 91 54 06 	lds	r25, 0x0654	; 0x800654 <counter2+0x1>
     36a:	01 96       	adiw	r24, 0x01	; 1
     36c:	90 93 54 06 	sts	0x0654, r25	; 0x800654 <counter2+0x1>
     370:	80 93 53 06 	sts	0x0653, r24	; 0x800653 <counter2>

    // inicio frame
    if (counter2 == 1)
     374:	80 91 53 06 	lds	r24, 0x0653	; 0x800653 <counter2>
     378:	90 91 54 06 	lds	r25, 0x0654	; 0x800654 <counter2+0x1>
     37c:	01 97       	sbiw	r24, 0x01	; 1
     37e:	31 f4       	brne	.+12     	; 0x38c <__vector_7+0x3c>
    {
        PORTD |= (1 << PORTD3);
     380:	8b b1       	in	r24, 0x0b	; 11
     382:	88 60       	ori	r24, 0x08	; 8
     384:	8b b9       	out	0x0b, r24	; 11
        PORTB |= (1 << PORTB3);
     386:	85 b1       	in	r24, 0x05	; 5
     388:	88 60       	ori	r24, 0x08	; 8
     38a:	85 b9       	out	0x05, r24	; 5
    }

    // apagar servo A
    if (counter2 == servo2A_ticks)
     38c:	20 91 53 06 	lds	r18, 0x0653	; 0x800653 <counter2>
     390:	30 91 54 06 	lds	r19, 0x0654	; 0x800654 <counter2+0x1>
     394:	80 91 02 01 	lds	r24, 0x0102	; 0x800102 <servo2A_ticks>
     398:	90 91 03 01 	lds	r25, 0x0103	; 0x800103 <servo2A_ticks+0x1>
     39c:	28 17       	cp	r18, r24
     39e:	39 07       	cpc	r19, r25
     3a0:	19 f4       	brne	.+6      	; 0x3a8 <__vector_7+0x58>
    {
        PORTD &= ~(1 << PORTD3);
     3a2:	8b b1       	in	r24, 0x0b	; 11
     3a4:	87 7f       	andi	r24, 0xF7	; 247
     3a6:	8b b9       	out	0x0b, r24	; 11
    }

    // apagar servo B
    if (counter2 == servo2B_ticks)
     3a8:	20 91 53 06 	lds	r18, 0x0653	; 0x800653 <counter2>
     3ac:	30 91 54 06 	lds	r19, 0x0654	; 0x800654 <counter2+0x1>
     3b0:	80 91 00 01 	lds	r24, 0x0100	; 0x800100 <__DATA_REGION_ORIGIN__>
     3b4:	90 91 01 01 	lds	r25, 0x0101	; 0x800101 <__DATA_REGION_ORIGIN__+0x1>
     3b8:	28 17       	cp	r18, r24
     3ba:	39 07       	cpc	r19, r25
     3bc:	19 f4       	brne	.+6      	; 0x3c4 <__vector_7+0x74>
    {
        PORTB &= ~(1 << PORTB3);
     3be:	85 b1       	in	r24, 0x05	; 5
     3c0:	87 7f       	andi	r24, 0xF7	; 247
     3c2:	85 b9       	out	0x05, r24	; 5
    }

    // 20ms frame
    if (counter2 >= 1000)
     3c4:	80 91 53 06 	lds	r24, 0x0653	; 0x800653 <counter2>
     3c8:	90 91 54 06 	lds	r25, 0x0654	; 0x800654 <counter2+0x1>
     3cc:	88 3e       	cpi	r24, 0xE8	; 232
     3ce:	93 40       	sbci	r25, 0x03	; 3
     3d0:	20 f0       	brcs	.+8      	; 0x3da <__vector_7+0x8a>
    {
        counter2 = 0;
     3d2:	10 92 54 06 	sts	0x0654, r1	; 0x800654 <counter2+0x1>
     3d6:	10 92 53 06 	sts	0x0653, r1	; 0x800653 <counter2>
    }
}
     3da:	9f 91       	pop	r25
     3dc:	8f 91       	pop	r24
     3de:	3f 91       	pop	r19
     3e0:	2f 91       	pop	r18
     3e2:	0f 90       	pop	r0
     3e4:	0f be       	out	0x3f, r0	; 63
     3e6:	0f 90       	pop	r0
     3e8:	1f 90       	pop	r1
     3ea:	18 95       	reti

000003ec <PWM2_SetDuty1>:

void PWM2_SetDuty1(uint16_t ticks)
{
    servo2A_ticks = ticks;
     3ec:	90 93 03 01 	sts	0x0103, r25	; 0x800103 <servo2A_ticks+0x1>
     3f0:	80 93 02 01 	sts	0x0102, r24	; 0x800102 <servo2A_ticks>
     3f4:	08 95       	ret

000003f6 <PWM2_SetDuty2>:
}

void PWM2_SetDuty2(uint16_t ticks)
{
    servo2B_ticks = ticks;
     3f6:	90 93 01 01 	sts	0x0101, r25	; 0x800101 <__DATA_REGION_ORIGIN__+0x1>
     3fa:	80 93 00 01 	sts	0x0100, r24	; 0x800100 <__DATA_REGION_ORIGIN__>
     3fe:	08 95       	ret

00000400 <PWM0_Init>:


void PWM0_Init(void)
{
    // PD6 y PD5 salida
    DDRD |= (1 << DDD6) | (1 << DDD5);
     400:	8a b1       	in	r24, 0x0a	; 10
     402:	80 66       	ori	r24, 0x60	; 96
     404:	8a b9       	out	0x0a, r24	; 10

    // CTC mode
    TCCR0A = (1 << WGM01);
     406:	82 e0       	ldi	r24, 0x02	; 2
     408:	84 bd       	out	0x24, r24	; 36

    // prescaler 8
    TCCR0B = (1 << CS01);
     40a:	85 bd       	out	0x25, r24	; 37
    OCR0A = 39

    40 ticks = 20us
    */

    OCR0A = 39;
     40c:	97 e2       	ldi	r25, 0x27	; 39
     40e:	97 bd       	out	0x27, r25	; 39

    // habilitar interrupción compare match
    TIMSK0 = (1 << OCIE0A);
     410:	80 93 6e 00 	sts	0x006E, r24	; 0x80006e <__TEXT_REGION_LENGTH__+0x7f806e>
     414:	08 95       	ret

00000416 <__vector_14>:
}

ISR(TIMER0_COMPA_vect)
{
     416:	1f 92       	push	r1
     418:	0f 92       	push	r0
     41a:	0f b6       	in	r0, 0x3f	; 63
     41c:	0f 92       	push	r0
     41e:	11 24       	eor	r1, r1
     420:	2f 93       	push	r18
     422:	3f 93       	push	r19
     424:	8f 93       	push	r24
     426:	9f 93       	push	r25
    counter0++;
     428:	80 91 55 06 	lds	r24, 0x0655	; 0x800655 <counter0>
     42c:	90 91 56 06 	lds	r25, 0x0656	; 0x800656 <counter0+0x1>
     430:	01 96       	adiw	r24, 0x01	; 1
     432:	90 93 56 06 	sts	0x0656, r25	; 0x800656 <counter0+0x1>
     436:	80 93 55 06 	sts	0x0655, r24	; 0x800655 <counter0>

    // inicio frame
    if (counter0 == 1)
     43a:	80 91 55 06 	lds	r24, 0x0655	; 0x800655 <counter0>
     43e:	90 91 56 06 	lds	r25, 0x0656	; 0x800656 <counter0+0x1>
     442:	01 97       	sbiw	r24, 0x01	; 1
     444:	31 f4       	brne	.+12     	; 0x452 <__vector_14+0x3c>
    {
        PORTD |= (1 << PORTD6);
     446:	8b b1       	in	r24, 0x0b	; 11
     448:	80 64       	ori	r24, 0x40	; 64
     44a:	8b b9       	out	0x0b, r24	; 11
        PORTD |= (1 << PORTD5);
     44c:	8b b1       	in	r24, 0x0b	; 11
     44e:	80 62       	ori	r24, 0x20	; 32
     450:	8b b9       	out	0x0b, r24	; 11
    }

    // apagar servo PD6
    if (counter0 == servo0A_ticks)
     452:	20 91 55 06 	lds	r18, 0x0655	; 0x800655 <counter0>
     456:	30 91 56 06 	lds	r19, 0x0656	; 0x800656 <counter0+0x1>
     45a:	80 91 06 01 	lds	r24, 0x0106	; 0x800106 <servo0A_ticks>
     45e:	90 91 07 01 	lds	r25, 0x0107	; 0x800107 <servo0A_ticks+0x1>
     462:	28 17       	cp	r18, r24
     464:	39 07       	cpc	r19, r25
     466:	19 f4       	brne	.+6      	; 0x46e <__vector_14+0x58>
    {
        PORTD &= ~(1 << PORTD6);
     468:	8b b1       	in	r24, 0x0b	; 11
     46a:	8f 7b       	andi	r24, 0xBF	; 191
     46c:	8b b9       	out	0x0b, r24	; 11
    }

    // apagar servo PD5
    if (counter0 == servo0B_ticks)
     46e:	20 91 55 06 	lds	r18, 0x0655	; 0x800655 <counter0>
     472:	30 91 56 06 	lds	r19, 0x0656	; 0x800656 <counter0+0x1>
     476:	80 91 04 01 	lds	r24, 0x0104	; 0x800104 <servo0B_ticks>
     47a:	90 91 05 01 	lds	r25, 0x0105	; 0x800105 <servo0B_ticks+0x1>
     47e:	28 17       	cp	r18, r24
     480:	39 07       	cpc	r19, r25
     482:	19 f4       	brne	.+6      	; 0x48a <__vector_14+0x74>
    {
        PORTD &= ~(1 << PORTD5);
     484:	8b b1       	in	r24, 0x0b	; 11
     486:	8f 7d       	andi	r24, 0xDF	; 223
     488:	8b b9       	out	0x0b, r24	; 11
    }

    // reinicio frame 20ms
    if (counter0 >= 1000)
     48a:	80 91 55 06 	lds	r24, 0x0655	; 0x800655 <counter0>
     48e:	90 91 56 06 	lds	r25, 0x0656	; 0x800656 <counter0+0x1>
     492:	88 3e       	cpi	r24, 0xE8	; 232
     494:	93 40       	sbci	r25, 0x03	; 3
     496:	20 f0       	brcs	.+8      	; 0x4a0 <__vector_14+0x8a>
    {
        counter0 = 0;
     498:	10 92 56 06 	sts	0x0656, r1	; 0x800656 <counter0+0x1>
     49c:	10 92 55 06 	sts	0x0655, r1	; 0x800655 <counter0>
    }
}
     4a0:	9f 91       	pop	r25
     4a2:	8f 91       	pop	r24
     4a4:	3f 91       	pop	r19
     4a6:	2f 91       	pop	r18
     4a8:	0f 90       	pop	r0
     4aa:	0f be       	out	0x3f, r0	; 63
     4ac:	0f 90       	pop	r0
     4ae:	1f 90       	pop	r1
     4b0:	18 95       	reti

000004b2 <PWM0_SetDuty1>:

void PWM0_SetDuty1(uint16_t ticks)
{
    servo0A_ticks = ticks;
     4b2:	90 93 07 01 	sts	0x0107, r25	; 0x800107 <servo0A_ticks+0x1>
     4b6:	80 93 06 01 	sts	0x0106, r24	; 0x800106 <servo0A_ticks>
     4ba:	08 95       	ret

000004bc <PWM0_SetDuty2>:
}

void PWM0_SetDuty2(uint16_t ticks)
{
    servo0B_ticks = ticks;
     4bc:	90 93 05 01 	sts	0x0105, r25	; 0x800105 <servo0B_ticks+0x1>
     4c0:	80 93 04 01 	sts	0x0104, r24	; 0x800104 <servo0B_ticks>
     4c4:	08 95       	ret

000004c6 <ServoMemory_PrintEEPROM>:
	90,
	90
};// se cambiaron las variables temporales

void ServoMemory_PrintEEPROM(void)// esta es la funcón para el menś cuando sale en la opción tres de eeprom del menś
{
     4c6:	0f 93       	push	r16
     4c8:	1f 93       	push	r17
     4ca:	cf 93       	push	r28
     4cc:	df 93       	push	r29
     4ce:	cd b7       	in	r28, 0x3d	; 61
     4d0:	de b7       	in	r29, 0x3e	; 62
     4d2:	2a 97       	sbiw	r28, 0x0a	; 10
     4d4:	0f b6       	in	r0, 0x3f	; 63
     4d6:	f8 94       	cli
     4d8:	de bf       	out	0x3e, r29	; 62
     4da:	0f be       	out	0x3f, r0	; 63
     4dc:	cd bf       	out	0x3d, r28	; 61
	char out[10];

	writeString("\r\n===== EEPROM =====\r\n");
     4de:	8e e0       	ldi	r24, 0x0E	; 14
     4e0:	91 e0       	ldi	r25, 0x01	; 1
     4e2:	0e 94 b3 03 	call	0x766	; 0x766 <writeString>

	writeString("I1 -> ");
     4e6:	85 e2       	ldi	r24, 0x25	; 37
     4e8:	91 e0       	ldi	r25, 0x01	; 1
     4ea:	0e 94 b3 03 	call	0x766	; 0x766 <writeString>
	itoa(servoAng[0], out, 10);
     4ee:	08 e0       	ldi	r16, 0x08	; 8
     4f0:	11 e0       	ldi	r17, 0x01	; 1
     4f2:	f8 01       	movw	r30, r16
     4f4:	80 81       	ld	r24, Z
    } else if (__radix < 2 || __radix > 36) {
	*__s = 0;
	return __s;
    } else {
	extern char *__itoa_ncheck (int, char *, unsigned char);
	return __itoa_ncheck (__val, __s, __radix);
     4f6:	4a e0       	ldi	r20, 0x0A	; 10
     4f8:	be 01       	movw	r22, r28
     4fa:	6f 5f       	subi	r22, 0xFF	; 255
     4fc:	7f 4f       	sbci	r23, 0xFF	; 255
     4fe:	90 e0       	ldi	r25, 0x00	; 0
     500:	0e 94 08 08 	call	0x1010	; 0x1010 <__itoa_ncheck>
	writeString(out);
     504:	ce 01       	movw	r24, r28
     506:	01 96       	adiw	r24, 0x01	; 1
     508:	0e 94 b3 03 	call	0x766	; 0x766 <writeString>
	writeString("\r\n");
     50c:	8f e5       	ldi	r24, 0x5F	; 95
     50e:	92 e0       	ldi	r25, 0x02	; 2
     510:	0e 94 b3 03 	call	0x766	; 0x766 <writeString>

	writeString("D1 -> ");
     514:	8c e2       	ldi	r24, 0x2C	; 44
     516:	91 e0       	ldi	r25, 0x01	; 1
     518:	0e 94 b3 03 	call	0x766	; 0x766 <writeString>
	itoa(servoAng[1], out, 10);
     51c:	f8 01       	movw	r30, r16
     51e:	81 81       	ldd	r24, Z+1	; 0x01
     520:	4a e0       	ldi	r20, 0x0A	; 10
     522:	be 01       	movw	r22, r28
     524:	6f 5f       	subi	r22, 0xFF	; 255
     526:	7f 4f       	sbci	r23, 0xFF	; 255
     528:	90 e0       	ldi	r25, 0x00	; 0
     52a:	0e 94 08 08 	call	0x1010	; 0x1010 <__itoa_ncheck>
	writeString(out);
     52e:	ce 01       	movw	r24, r28
     530:	01 96       	adiw	r24, 0x01	; 1
     532:	0e 94 b3 03 	call	0x766	; 0x766 <writeString>
	writeString("\r\n");
     536:	8f e5       	ldi	r24, 0x5F	; 95
     538:	92 e0       	ldi	r25, 0x02	; 2
     53a:	0e 94 b3 03 	call	0x766	; 0x766 <writeString>

	writeString("I2 -> ");
     53e:	83 e3       	ldi	r24, 0x33	; 51
     540:	91 e0       	ldi	r25, 0x01	; 1
     542:	0e 94 b3 03 	call	0x766	; 0x766 <writeString>
	itoa(servoAng[2], out, 10);
     546:	f8 01       	movw	r30, r16
     548:	82 81       	ldd	r24, Z+2	; 0x02
     54a:	4a e0       	ldi	r20, 0x0A	; 10
     54c:	be 01       	movw	r22, r28
     54e:	6f 5f       	subi	r22, 0xFF	; 255
     550:	7f 4f       	sbci	r23, 0xFF	; 255
     552:	90 e0       	ldi	r25, 0x00	; 0
     554:	0e 94 08 08 	call	0x1010	; 0x1010 <__itoa_ncheck>
	writeString(out);
     558:	ce 01       	movw	r24, r28
     55a:	01 96       	adiw	r24, 0x01	; 1
     55c:	0e 94 b3 03 	call	0x766	; 0x766 <writeString>
	writeString("\r\n");
     560:	8f e5       	ldi	r24, 0x5F	; 95
     562:	92 e0       	ldi	r25, 0x02	; 2
     564:	0e 94 b3 03 	call	0x766	; 0x766 <writeString>

	writeString("D2 -> ");
     568:	8a e3       	ldi	r24, 0x3A	; 58
     56a:	91 e0       	ldi	r25, 0x01	; 1
     56c:	0e 94 b3 03 	call	0x766	; 0x766 <writeString>
	itoa(servoAng[3], out, 10);
     570:	f8 01       	movw	r30, r16
     572:	83 81       	ldd	r24, Z+3	; 0x03
     574:	4a e0       	ldi	r20, 0x0A	; 10
     576:	be 01       	movw	r22, r28
     578:	6f 5f       	subi	r22, 0xFF	; 255
     57a:	7f 4f       	sbci	r23, 0xFF	; 255
     57c:	90 e0       	ldi	r25, 0x00	; 0
     57e:	0e 94 08 08 	call	0x1010	; 0x1010 <__itoa_ncheck>
	writeString(out);
     582:	ce 01       	movw	r24, r28
     584:	01 96       	adiw	r24, 0x01	; 1
     586:	0e 94 b3 03 	call	0x766	; 0x766 <writeString>
	writeString("\r\n");
     58a:	8f e5       	ldi	r24, 0x5F	; 95
     58c:	92 e0       	ldi	r25, 0x02	; 2
     58e:	0e 94 b3 03 	call	0x766	; 0x766 <writeString>

	writeString("M1 -> ");
     592:	81 e4       	ldi	r24, 0x41	; 65
     594:	91 e0       	ldi	r25, 0x01	; 1
     596:	0e 94 b3 03 	call	0x766	; 0x766 <writeString>
	itoa(servoAng[4], out, 10);
     59a:	f8 01       	movw	r30, r16
     59c:	84 81       	ldd	r24, Z+4	; 0x04
     59e:	4a e0       	ldi	r20, 0x0A	; 10
     5a0:	be 01       	movw	r22, r28
     5a2:	6f 5f       	subi	r22, 0xFF	; 255
     5a4:	7f 4f       	sbci	r23, 0xFF	; 255
     5a6:	90 e0       	ldi	r25, 0x00	; 0
     5a8:	0e 94 08 08 	call	0x1010	; 0x1010 <__itoa_ncheck>
	writeString(out);
     5ac:	ce 01       	movw	r24, r28
     5ae:	01 96       	adiw	r24, 0x01	; 1
     5b0:	0e 94 b3 03 	call	0x766	; 0x766 <writeString>
	writeString("\r\n");
     5b4:	8f e5       	ldi	r24, 0x5F	; 95
     5b6:	92 e0       	ldi	r25, 0x02	; 2
     5b8:	0e 94 b3 03 	call	0x766	; 0x766 <writeString>

	writeString("M2 -> ");
     5bc:	88 e4       	ldi	r24, 0x48	; 72
     5be:	91 e0       	ldi	r25, 0x01	; 1
     5c0:	0e 94 b3 03 	call	0x766	; 0x766 <writeString>
	itoa(servoAng[5], out, 10);
     5c4:	f8 01       	movw	r30, r16
     5c6:	85 81       	ldd	r24, Z+5	; 0x05
     5c8:	4a e0       	ldi	r20, 0x0A	; 10
     5ca:	be 01       	movw	r22, r28
     5cc:	6f 5f       	subi	r22, 0xFF	; 255
     5ce:	7f 4f       	sbci	r23, 0xFF	; 255
     5d0:	90 e0       	ldi	r25, 0x00	; 0
     5d2:	0e 94 08 08 	call	0x1010	; 0x1010 <__itoa_ncheck>
	writeString(out);
     5d6:	ce 01       	movw	r24, r28
     5d8:	01 96       	adiw	r24, 0x01	; 1
     5da:	0e 94 b3 03 	call	0x766	; 0x766 <writeString>
	writeString("\r\n");
     5de:	8f e5       	ldi	r24, 0x5F	; 95
     5e0:	92 e0       	ldi	r25, 0x02	; 2
     5e2:	0e 94 b3 03 	call	0x766	; 0x766 <writeString>
}
     5e6:	2a 96       	adiw	r28, 0x0a	; 10
     5e8:	0f b6       	in	r0, 0x3f	; 63
     5ea:	f8 94       	cli
     5ec:	de bf       	out	0x3e, r29	; 62
     5ee:	0f be       	out	0x3f, r0	; 63
     5f0:	cd bf       	out	0x3d, r28	; 61
     5f2:	df 91       	pop	r29
     5f4:	cf 91       	pop	r28
     5f6:	1f 91       	pop	r17
     5f8:	0f 91       	pop	r16
     5fa:	08 95       	ret

000005fc <ServoMemory_ApplyPWM>:

void ServoMemory_ApplyPWM(void)// funcion solo para el pwm
{
     5fc:	cf 93       	push	r28
     5fe:	df 93       	push	r29
	// Ojos base
	PWM1_SetDuty(ServoToOCR(servoAng[0]));
     600:	c8 e0       	ldi	r28, 0x08	; 8
     602:	d1 e0       	ldi	r29, 0x01	; 1
     604:	88 81       	ld	r24, Y
     606:	0e 94 5f 03 	call	0x6be	; 0x6be <ServoToOCR>
     60a:	0e 94 8d 01 	call	0x31a	; 0x31a <PWM1_SetDuty>
	PWM1_SetDuty2(ServoToOCR(servoAng[1]));
     60e:	89 81       	ldd	r24, Y+1	; 0x01
     610:	0e 94 5f 03 	call	0x6be	; 0x6be <ServoToOCR>
     614:	0e 94 92 01 	call	0x324	; 0x324 <PWM1_SetDuty2>

	// Pupilas
	PWM0_SetDuty1(ServoToTicks(servoAng[2]));
     618:	8a 81       	ldd	r24, Y+2	; 0x02
     61a:	0e 94 6f 03 	call	0x6de	; 0x6de <ServoToTicks>
     61e:	90 e0       	ldi	r25, 0x00	; 0
     620:	0e 94 59 02 	call	0x4b2	; 0x4b2 <PWM0_SetDuty1>
	PWM0_SetDuty2(ServoToTicks(servoAng[3]));
     624:	8b 81       	ldd	r24, Y+3	; 0x03
     626:	0e 94 6f 03 	call	0x6de	; 0x6de <ServoToTicks>
     62a:	90 e0       	ldi	r25, 0x00	; 0
     62c:	0e 94 5e 02 	call	0x4bc	; 0x4bc <PWM0_SetDuty2>

	// Parpados
	PWM2_SetDuty1(ServoToTicks(servoAng[4]));
     630:	8c 81       	ldd	r24, Y+4	; 0x04
     632:	0e 94 6f 03 	call	0x6de	; 0x6de <ServoToTicks>
     636:	90 e0       	ldi	r25, 0x00	; 0
     638:	0e 94 f6 01 	call	0x3ec	; 0x3ec <PWM2_SetDuty1>
	PWM2_SetDuty2(ServoToTicks(servoAng[5]));
     63c:	8d 81       	ldd	r24, Y+5	; 0x05
     63e:	0e 94 6f 03 	call	0x6de	; 0x6de <ServoToTicks>
     642:	90 e0       	ldi	r25, 0x00	; 0
     644:	0e 94 fb 01 	call	0x3f6	; 0x3f6 <PWM2_SetDuty2>
}
     648:	df 91       	pop	r29
     64a:	cf 91       	pop	r28
     64c:	08 95       	ret

0000064e <ServoMemory_LoadAndApply>:

void ServoMemory_LoadAndApply(uint8_t pose)
{
     64e:	0f 93       	push	r16
     650:	1f 93       	push	r17
     652:	cf 93       	push	r28
     654:	df 93       	push	r29
	uint8_t base;

	base = (pose - 1) * 6;
     656:	90 e0       	ldi	r25, 0x00	; 0
     658:	01 97       	sbiw	r24, 0x01	; 1
     65a:	98 2f       	mov	r25, r24
     65c:	99 0f       	add	r25, r25
     65e:	89 0f       	add	r24, r25
     660:	c8 2f       	mov	r28, r24
     662:	cc 0f       	add	r28, r28

	//================ LEER EEPROM =================//

	servoAng[0] = eeprom_read_byte((uint8_t*)(base + 0));
     664:	d0 e0       	ldi	r29, 0x00	; 0
     666:	ce 01       	movw	r24, r28
     668:	0e 94 45 08 	call	0x108a	; 0x108a <eeprom_read_byte>
     66c:	08 e0       	ldi	r16, 0x08	; 8
     66e:	11 e0       	ldi	r17, 0x01	; 1
     670:	f8 01       	movw	r30, r16
     672:	80 83       	st	Z, r24
	servoAng[1] = eeprom_read_byte((uint8_t*)(base + 1));
     674:	ce 01       	movw	r24, r28
     676:	01 96       	adiw	r24, 0x01	; 1
     678:	0e 94 45 08 	call	0x108a	; 0x108a <eeprom_read_byte>
     67c:	f8 01       	movw	r30, r16
     67e:	81 83       	std	Z+1, r24	; 0x01

	servoAng[2] = eeprom_read_byte((uint8_t*)(base + 2));
     680:	ce 01       	movw	r24, r28
     682:	02 96       	adiw	r24, 0x02	; 2
     684:	0e 94 45 08 	call	0x108a	; 0x108a <eeprom_read_byte>
     688:	f8 01       	movw	r30, r16
     68a:	82 83       	std	Z+2, r24	; 0x02
	servoAng[3] = eeprom_read_byte((uint8_t*)(base + 3));
     68c:	ce 01       	movw	r24, r28
     68e:	03 96       	adiw	r24, 0x03	; 3
     690:	0e 94 45 08 	call	0x108a	; 0x108a <eeprom_read_byte>
     694:	f8 01       	movw	r30, r16
     696:	83 83       	std	Z+3, r24	; 0x03

	servoAng[4] = eeprom_read_byte((uint8_t*)(base + 4));
     698:	ce 01       	movw	r24, r28
     69a:	04 96       	adiw	r24, 0x04	; 4
     69c:	0e 94 45 08 	call	0x108a	; 0x108a <eeprom_read_byte>
     6a0:	f8 01       	movw	r30, r16
     6a2:	84 83       	std	Z+4, r24	; 0x04
	servoAng[5] = eeprom_read_byte((uint8_t*)(base + 5));
     6a4:	ce 01       	movw	r24, r28
     6a6:	05 96       	adiw	r24, 0x05	; 5
     6a8:	0e 94 45 08 	call	0x108a	; 0x108a <eeprom_read_byte>
     6ac:	f8 01       	movw	r30, r16
     6ae:	85 83       	std	Z+5, r24	; 0x05

	//================ APLICAR PWM =================//

	ServoMemory_ApplyPWM();
     6b0:	0e 94 fe 02 	call	0x5fc	; 0x5fc <ServoMemory_ApplyPWM>
}
     6b4:	df 91       	pop	r29
     6b6:	cf 91       	pop	r28
     6b8:	1f 91       	pop	r17
     6ba:	0f 91       	pop	r16
     6bc:	08 95       	ret

000006be <ServoToOCR>:
/*
Hay un movimiento poco refinado en los servomotores, por ello se tratarį de arreglar cambiando el valor de 2000 
*/
uint16_t ServoToOCR(uint8_t ang)
{
	return 2000 + ((uint32_t)ang * 2000) / 180;
     6be:	28 2f       	mov	r18, r24
     6c0:	30 e0       	ldi	r19, 0x00	; 0
     6c2:	a0 ed       	ldi	r26, 0xD0	; 208
     6c4:	b7 e0       	ldi	r27, 0x07	; 7
     6c6:	0e 94 c4 07 	call	0xf88	; 0xf88 <__umulhisi3>
     6ca:	24 eb       	ldi	r18, 0xB4	; 180
     6cc:	30 e0       	ldi	r19, 0x00	; 0
     6ce:	40 e0       	ldi	r20, 0x00	; 0
     6d0:	50 e0       	ldi	r21, 0x00	; 0
     6d2:	0e 94 a2 07 	call	0xf44	; 0xf44 <__udivmodsi4>
}
     6d6:	c9 01       	movw	r24, r18
     6d8:	80 53       	subi	r24, 0x30	; 48
     6da:	98 4f       	sbci	r25, 0xF8	; 248
     6dc:	08 95       	ret

000006de <ServoToTicks>:
}
*/

uint16_t ServoToTicks(uint8_t ang)
{
	return 50 + ((uint32_t)ang * 50) / 180;
     6de:	28 2f       	mov	r18, r24
     6e0:	30 e0       	ldi	r19, 0x00	; 0
     6e2:	a2 e3       	ldi	r26, 0x32	; 50
     6e4:	b0 e0       	ldi	r27, 0x00	; 0
     6e6:	0e 94 c4 07 	call	0xf88	; 0xf88 <__umulhisi3>
     6ea:	24 eb       	ldi	r18, 0xB4	; 180
     6ec:	30 e0       	ldi	r19, 0x00	; 0
     6ee:	40 e0       	ldi	r20, 0x00	; 0
     6f0:	50 e0       	ldi	r21, 0x00	; 0
     6f2:	0e 94 a2 07 	call	0xf44	; 0xf44 <__udivmodsi4>
}
     6f6:	c9 01       	movw	r24, r18
     6f8:	c2 96       	adiw	r24, 0x32	; 50
     6fa:	08 95       	ret

000006fc <ADCToAngle>:

uint8_t ADCToAngle(uint16_t adc)
{
	return (adc * 180UL) / 1023;
     6fc:	9c 01       	movw	r18, r24
     6fe:	a4 eb       	ldi	r26, 0xB4	; 180
     700:	b0 e0       	ldi	r27, 0x00	; 0
     702:	0e 94 c4 07 	call	0xf88	; 0xf88 <__umulhisi3>
     706:	2f ef       	ldi	r18, 0xFF	; 255
     708:	33 e0       	ldi	r19, 0x03	; 3
     70a:	40 e0       	ldi	r20, 0x00	; 0
     70c:	50 e0       	ldi	r21, 0x00	; 0
     70e:	0e 94 a2 07 	call	0xf44	; 0xf44 <__udivmodsi4>
     712:	82 2f       	mov	r24, r18
     714:	08 95       	ret

00000716 <UART_Init>:
//============ Inicialización UART =============//

void UART_Init(void)
{
		//=== Leds de estado
		DDRB |= (1 << DDB0);
     716:	84 b1       	in	r24, 0x04	; 4
     718:	81 60       	ori	r24, 0x01	; 1
     71a:	84 b9       	out	0x04, r24	; 4
		DDRD |= (1 << DDD7);
     71c:	8a b1       	in	r24, 0x0a	; 10
     71e:	80 68       	ori	r24, 0x80	; 128
     720:	8a b9       	out	0x0a, r24	; 10

		PORTB &= ~(1 << PORTB0);
     722:	85 b1       	in	r24, 0x05	; 5
     724:	8e 7f       	andi	r24, 0xFE	; 254
     726:	85 b9       	out	0x05, r24	; 5
		PORTD &= ~(1 << PORTD7);
     728:	8b b1       	in	r24, 0x0b	; 11
     72a:	8f 77       	andi	r24, 0x7F	; 127
     72c:	8b b9       	out	0x0b, r24	; 11
		
	// RX entrada
	DDRD &= ~(1 << DDD0);
     72e:	8a b1       	in	r24, 0x0a	; 10
     730:	8e 7f       	andi	r24, 0xFE	; 254
     732:	8a b9       	out	0x0a, r24	; 10

	// TX salida
	DDRD |= (1 << DDD1);
     734:	8a b1       	in	r24, 0x0a	; 10
     736:	82 60       	ori	r24, 0x02	; 2
     738:	8a b9       	out	0x0a, r24	; 10

	UCSR0A = 0;
     73a:	10 92 c0 00 	sts	0x00C0, r1	; 0x8000c0 <__TEXT_REGION_LENGTH__+0x7f80c0>

	// RX + TX + interrupción RX
	UCSR0B = (1 << RXCIE0) |
     73e:	88 e9       	ldi	r24, 0x98	; 152
     740:	80 93 c1 00 	sts	0x00C1, r24	; 0x8000c1 <__TEXT_REGION_LENGTH__+0x7f80c1>
	(1 << RXEN0)  |
	(1 << TXEN0);

	// 8 bits
	UCSR0C = (1 << UCSZ01) |
     744:	86 e0       	ldi	r24, 0x06	; 6
     746:	80 93 c2 00 	sts	0x00C2, r24	; 0x8000c2 <__TEXT_REGION_LENGTH__+0x7f80c2>
	(1 << UCSZ00);

	// Baudrate 9600
	UBRR0 = 103;
     74a:	87 e6       	ldi	r24, 0x67	; 103
     74c:	90 e0       	ldi	r25, 0x00	; 0
     74e:	90 93 c5 00 	sts	0x00C5, r25	; 0x8000c5 <__TEXT_REGION_LENGTH__+0x7f80c5>
     752:	80 93 c4 00 	sts	0x00C4, r24	; 0x8000c4 <__TEXT_REGION_LENGTH__+0x7f80c4>
     756:	08 95       	ret

00000758 <writeChar>:

//========== UART funciones bįsicas de comunicación ==========//

void writeChar(char c)//para carįcters
{
	while (!(UCSR0A & (1 << UDRE0)));
     758:	90 91 c0 00 	lds	r25, 0x00C0	; 0x8000c0 <__TEXT_REGION_LENGTH__+0x7f80c0>
     75c:	95 ff       	sbrs	r25, 5
     75e:	fc cf       	rjmp	.-8      	; 0x758 <writeChar>

	UDR0 = c;
     760:	80 93 c6 00 	sts	0x00C6, r24	; 0x8000c6 <__TEXT_REGION_LENGTH__+0x7f80c6>
     764:	08 95       	ret

00000766 <writeString>:
}

void writeString(char *string)//para mandar mis cadenas de texto 
{
     766:	0f 93       	push	r16
     768:	1f 93       	push	r17
     76a:	cf 93       	push	r28
     76c:	8c 01       	movw	r16, r24
	uint8_t i = 0;
     76e:	c0 e0       	ldi	r28, 0x00	; 0

	while (string[i] != '\0')
     770:	03 c0       	rjmp	.+6      	; 0x778 <writeString+0x12>
	{
		writeChar(string[i]);
     772:	0e 94 ac 03 	call	0x758	; 0x758 <writeChar>
		i++;
     776:	cf 5f       	subi	r28, 0xFF	; 255

void writeString(char *string)//para mandar mis cadenas de texto 
{
	uint8_t i = 0;

	while (string[i] != '\0')
     778:	f8 01       	movw	r30, r16
     77a:	ec 0f       	add	r30, r28
     77c:	f1 1d       	adc	r31, r1
     77e:	80 81       	ld	r24, Z
     780:	81 11       	cpse	r24, r1
     782:	f7 cf       	rjmp	.-18     	; 0x772 <writeString+0xc>
	{
		writeChar(string[i]);
		i++;
	}
}
     784:	cf 91       	pop	r28
     786:	1f 91       	pop	r17
     788:	0f 91       	pop	r16
     78a:	08 95       	ret

0000078c <printMenu>:

//================ Menś =================//

void printMenu(void)
{
	writeString("\r\n");
     78c:	8f e5       	ldi	r24, 0x5F	; 95
     78e:	92 e0       	ldi	r25, 0x02	; 2
     790:	0e 94 b3 03 	call	0x766	; 0x766 <writeString>
	writeString("======= MENU ANIMATRONICO =======\r\n");
     794:	8f e4       	ldi	r24, 0x4F	; 79
     796:	91 e0       	ldi	r25, 0x01	; 1
     798:	0e 94 b3 03 	call	0x766	; 0x766 <writeString>
	writeString("1 > Control de Ojos UART\r\n");
     79c:	83 e7       	ldi	r24, 0x73	; 115
     79e:	91 e0       	ldi	r25, 0x01	; 1
     7a0:	0e 94 b3 03 	call	0x766	; 0x766 <writeString>
	writeString("2 > Control de Parpados UART\r\n");
     7a4:	8e e8       	ldi	r24, 0x8E	; 142
     7a6:	91 e0       	ldi	r25, 0x01	; 1
     7a8:	0e 94 b3 03 	call	0x766	; 0x766 <writeString>
	writeString("3 > Reproducir Posiciones EEPROM\r\n");
     7ac:	8d ea       	ldi	r24, 0xAD	; 173
     7ae:	91 e0       	ldi	r25, 0x01	; 1
     7b0:	0e 94 b3 03 	call	0x766	; 0x766 <writeString>
	writeString("4 > Control Manual ADC\r\n");
     7b4:	80 ed       	ldi	r24, 0xD0	; 208
     7b6:	91 e0       	ldi	r25, 0x01	; 1
     7b8:	0e 94 b3 03 	call	0x766	; 0x766 <writeString>
	writeString("5 > Editar Posiciones EEPROM\r\n");
     7bc:	89 ee       	ldi	r24, 0xE9	; 233
     7be:	91 e0       	ldi	r25, 0x01	; 1
     7c0:	0e 94 b3 03 	call	0x766	; 0x766 <writeString>
	writeString("=================================\r\n");
     7c4:	88 e0       	ldi	r24, 0x08	; 8
     7c6:	92 e0       	ldi	r25, 0x02	; 2
     7c8:	0e 94 b3 03 	call	0x766	; 0x766 <writeString>
	
	writeString("Presiona el nśmero de la opción y ańade al final ; \r\n");
     7cc:	8c e2       	ldi	r24, 0x2C	; 44
     7ce:	92 e0       	ldi	r25, 0x02	; 2
     7d0:	0e 94 b3 03 	call	0x766	; 0x766 <writeString>
	writeString("Ejemplo: 1; \r\n");
     7d4:	82 e6       	ldi	r24, 0x62	; 98
     7d6:	92 e0       	ldi	r25, 0x02	; 2
     7d8:	0e 94 b3 03 	call	0x766	; 0x766 <writeString>
	writeString("> ");
     7dc:	80 e3       	ldi	r24, 0x30	; 48
     7de:	91 e0       	ldi	r25, 0x01	; 1
     7e0:	0e 94 b3 03 	call	0x766	; 0x766 <writeString>
     7e4:	08 95       	ret

000007e6 <processCommand>:
*/

//================ Procesamiento Comandos: Casos del menś ========================//

void processCommand(void)
{
     7e6:	cf 92       	push	r12
     7e8:	ef 92       	push	r14
     7ea:	0f 93       	push	r16
     7ec:	cf 93       	push	r28
	//================ MODO 0 ================//

	if (modo == 0)
     7ee:	80 91 59 06 	lds	r24, 0x0659	; 0x800659 <modo>
     7f2:	81 11       	cpse	r24, r1
     7f4:	cd c0       	rjmp	.+410    	; 0x990 <__stack+0x91>
	{ 	
		if (strcmp(buffer, "1") == 0)
     7f6:	61 e7       	ldi	r22, 0x71	; 113
     7f8:	72 e0       	ldi	r23, 0x02	; 2
     7fa:	84 e6       	ldi	r24, 0x64	; 100
     7fc:	96 e0       	ldi	r25, 0x06	; 6
     7fe:	0e 94 f1 07 	call	0xfe2	; 0xfe2 <strcmp>
     802:	89 2b       	or	r24, r25
     804:	11 f5       	brne	.+68     	; 0x84a <__DATA_REGION_LENGTH__+0x4a>
		{
			//leds de estados:
			PORTD |= (1 << PORTD7);   // Enciende PD7
     806:	8b b1       	in	r24, 0x0b	; 11
     808:	80 68       	ori	r24, 0x80	; 128
     80a:	8b b9       	out	0x0b, r24	; 11
			// apagar PB0 (por si se encuentra encendido)
			PORTB &= ~(1 << PORTB0);
     80c:	85 b1       	in	r24, 0x05	; 5
     80e:	8e 7f       	andi	r24, 0xFE	; 254
     810:	85 b9       	out	0x05, r24	; 5
			
			//logica de mi estado:
			
			modo = 1;
     812:	81 e0       	ldi	r24, 0x01	; 1
     814:	80 93 59 06 	sts	0x0659, r24	; 0x800659 <modo>
			writeString("\r\nModo OJOS\r\n");
     818:	83 e7       	ldi	r24, 0x73	; 115
     81a:	92 e0       	ldi	r25, 0x02	; 2
     81c:	0e 94 b3 03 	call	0x766	; 0x766 <writeString>
			writeString("I1:angulo;\r\n");
     820:	81 e8       	ldi	r24, 0x81	; 129
     822:	92 e0       	ldi	r25, 0x02	; 2
     824:	0e 94 b3 03 	call	0x766	; 0x766 <writeString>
			writeString("D1:angulo;\r\n");
     828:	8e e8       	ldi	r24, 0x8E	; 142
     82a:	92 e0       	ldi	r25, 0x02	; 2
     82c:	0e 94 b3 03 	call	0x766	; 0x766 <writeString>
			writeString("I2:angulo;\r\n");
     830:	8b e9       	ldi	r24, 0x9B	; 155
     832:	92 e0       	ldi	r25, 0x02	; 2
     834:	0e 94 b3 03 	call	0x766	; 0x766 <writeString>
			writeString("D2:angulo;\r\n");
     838:	88 ea       	ldi	r24, 0xA8	; 168
     83a:	92 e0       	ldi	r25, 0x02	; 2
     83c:	0e 94 b3 03 	call	0x766	; 0x766 <writeString>


			writeString("x; para salir\r\n");
     840:	85 eb       	ldi	r24, 0xB5	; 181
     842:	92 e0       	ldi	r25, 0x02	; 2
     844:	0e 94 b3 03 	call	0x766	; 0x766 <writeString>
     848:	33 c3       	rjmp	.+1638   	; 0xeb0 <__stack+0x5b1>
		}

		else if (strcmp(buffer, "2") == 0)
     84a:	65 ec       	ldi	r22, 0xC5	; 197
     84c:	72 e0       	ldi	r23, 0x02	; 2
     84e:	84 e6       	ldi	r24, 0x64	; 100
     850:	96 e0       	ldi	r25, 0x06	; 6
     852:	0e 94 f1 07 	call	0xfe2	; 0xfe2 <strcmp>
     856:	89 2b       	or	r24, r25
     858:	d1 f4       	brne	.+52     	; 0x88e <__DATA_REGION_LENGTH__+0x8e>
		{
			//leds de estados:
			PORTD |= (1 << PORTD7);   // Enciende PD7
     85a:	8b b1       	in	r24, 0x0b	; 11
     85c:	80 68       	ori	r24, 0x80	; 128
     85e:	8b b9       	out	0x0b, r24	; 11
			// apagar PB0 (por si se encuentra encendido)
			PORTB &= ~(1 << PORTB0);
     860:	85 b1       	in	r24, 0x05	; 5
     862:	8e 7f       	andi	r24, 0xFE	; 254
     864:	85 b9       	out	0x05, r24	; 5
			
			//logica de mi estado:
			modo = 2;
     866:	82 e0       	ldi	r24, 0x02	; 2
     868:	80 93 59 06 	sts	0x0659, r24	; 0x800659 <modo>

			writeString("\r\nModo PARPADOS\r\n");
     86c:	87 ec       	ldi	r24, 0xC7	; 199
     86e:	92 e0       	ldi	r25, 0x02	; 2
     870:	0e 94 b3 03 	call	0x766	; 0x766 <writeString>
			writeString("M1:angulo;\r\n");
     874:	89 ed       	ldi	r24, 0xD9	; 217
     876:	92 e0       	ldi	r25, 0x02	; 2
     878:	0e 94 b3 03 	call	0x766	; 0x766 <writeString>
			writeString("M2:angulo;\r\n");
     87c:	86 ee       	ldi	r24, 0xE6	; 230
     87e:	92 e0       	ldi	r25, 0x02	; 2
     880:	0e 94 b3 03 	call	0x766	; 0x766 <writeString>
			writeString("x; para salir\r\n");
     884:	85 eb       	ldi	r24, 0xB5	; 181
     886:	92 e0       	ldi	r25, 0x02	; 2
     888:	0e 94 b3 03 	call	0x766	; 0x766 <writeString>
     88c:	11 c3       	rjmp	.+1570   	; 0xeb0 <__stack+0x5b1>
		}

		else if (strcmp(buffer, "3") == 0)
     88e:	63 ef       	ldi	r22, 0xF3	; 243
     890:	72 e0       	ldi	r23, 0x02	; 2
     892:	84 e6       	ldi	r24, 0x64	; 100
     894:	96 e0       	ldi	r25, 0x06	; 6
     896:	0e 94 f1 07 	call	0xfe2	; 0xfe2 <strcmp>
     89a:	89 2b       	or	r24, r25
     89c:	31 f5       	brne	.+76     	; 0x8ea <__DATA_REGION_LENGTH__+0xea>
			*/
			//En esta versión del código se harį un a prueba beta para sacar los valores que se guardaron al presiona pb5
		
			
			//leds de estados:
			PORTD |= (1 << PORTD7);   // Enciende PD7
     89e:	8b b1       	in	r24, 0x0b	; 11
     8a0:	80 68       	ori	r24, 0x80	; 128
     8a2:	8b b9       	out	0x0b, r24	; 11
			// encender PB0 (por si se encuentra apagado)
			PORTB |= (1 << PORTB0);
     8a4:	85 b1       	in	r24, 0x05	; 5
     8a6:	81 60       	ori	r24, 0x01	; 1
     8a8:	85 b9       	out	0x05, r24	; 5
			
			//logica de mi estado:
			
			modo = 4;
     8aa:	84 e0       	ldi	r24, 0x04	; 4
     8ac:	80 93 59 06 	sts	0x0659, r24	; 0x800659 <modo>

			writeString("\r\n===== REPRODUCIR POSICIONES =====\r\n");
     8b0:	85 ef       	ldi	r24, 0xF5	; 245
     8b2:	92 e0       	ldi	r25, 0x02	; 2
     8b4:	0e 94 b3 03 	call	0x766	; 0x766 <writeString>

			writeString("1; > Posicion 1:Sorpresa\r\n");
     8b8:	8b e1       	ldi	r24, 0x1B	; 27
     8ba:	93 e0       	ldi	r25, 0x03	; 3
     8bc:	0e 94 b3 03 	call	0x766	; 0x766 <writeString>
			writeString("2; > Posicion 2:Neutral viendo Lado D\r\n");
     8c0:	86 e3       	ldi	r24, 0x36	; 54
     8c2:	93 e0       	ldi	r25, 0x03	; 3
     8c4:	0e 94 b3 03 	call	0x766	; 0x766 <writeString>
			writeString("3; > Posicion 3:Neutral viendo Lado iz\r\n");
     8c8:	8e e5       	ldi	r24, 0x5E	; 94
     8ca:	93 e0       	ldi	r25, 0x03	; 3
     8cc:	0e 94 b3 03 	call	0x766	; 0x766 <writeString>
			writeString("4; > Posicion 4:Durmiendo\r\n");
     8d0:	87 e8       	ldi	r24, 0x87	; 135
     8d2:	93 e0       	ldi	r25, 0x03	; 3
     8d4:	0e 94 b3 03 	call	0x766	; 0x766 <writeString>
			writeString("5; > Posicion 5:Editable por usuario\r\n");
     8d8:	83 ea       	ldi	r24, 0xA3	; 163
     8da:	93 e0       	ldi	r25, 0x03	; 3
     8dc:	0e 94 b3 03 	call	0x766	; 0x766 <writeString>

			writeString("x; para salir\r\n");
     8e0:	85 eb       	ldi	r24, 0xB5	; 181
     8e2:	92 e0       	ldi	r25, 0x02	; 2
     8e4:	0e 94 b3 03 	call	0x766	; 0x766 <writeString>
     8e8:	e3 c2       	rjmp	.+1478   	; 0xeb0 <__stack+0x5b1>
		}
		
		//================ ADC MANUAL ================//
		
		else if (strcmp(buffer, "4") == 0)
     8ea:	6a ec       	ldi	r22, 0xCA	; 202
     8ec:	73 e0       	ldi	r23, 0x03	; 3
     8ee:	84 e6       	ldi	r24, 0x64	; 100
     8f0:	96 e0       	ldi	r25, 0x06	; 6
     8f2:	0e 94 f1 07 	call	0xfe2	; 0xfe2 <strcmp>
     8f6:	89 2b       	or	r24, r25
     8f8:	b1 f4       	brne	.+44     	; 0x926 <__stack+0x27>
		{
			//leds de estados:
			PORTD &= ~(1 << PORTD7);   // apagar PD7
     8fa:	8b b1       	in	r24, 0x0b	; 11
     8fc:	8f 77       	andi	r24, 0x7F	; 127
     8fe:	8b b9       	out	0x0b, r24	; 11
			// encender PB0 
			PORTB |= (1 << PORTB0);
     900:	85 b1       	in	r24, 0x05	; 5
     902:	81 60       	ori	r24, 0x01	; 1
     904:	85 b9       	out	0x05, r24	; 5
			
			//logica de mi estado:
			modo = 3;
     906:	83 e0       	ldi	r24, 0x03	; 3
     908:	80 93 59 06 	sts	0x0659, r24	; 0x800659 <modo>

			writeString("Modo ADC Manual\r\n");
     90c:	8c ec       	ldi	r24, 0xCC	; 204
     90e:	93 e0       	ldi	r25, 0x03	; 3
     910:	0e 94 b3 03 	call	0x766	; 0x766 <writeString>
			writeString("Potenciometros activos\r\n");
     914:	8e ed       	ldi	r24, 0xDE	; 222
     916:	93 e0       	ldi	r25, 0x03	; 3
     918:	0e 94 b3 03 	call	0x766	; 0x766 <writeString>
			writeString("x; para salir\r\n");
     91c:	85 eb       	ldi	r24, 0xB5	; 181
     91e:	92 e0       	ldi	r25, 0x02	; 2
     920:	0e 94 b3 03 	call	0x766	; 0x766 <writeString>
     924:	c5 c2       	rjmp	.+1418   	; 0xeb0 <__stack+0x5b1>
		}
		
		//================ EDITAR EEPROM ================// mi opción 5

		else if (strcmp(buffer, "5") == 0)
     926:	67 ef       	ldi	r22, 0xF7	; 247
     928:	73 e0       	ldi	r23, 0x03	; 3
     92a:	84 e6       	ldi	r24, 0x64	; 100
     92c:	96 e0       	ldi	r25, 0x06	; 6
     92e:	0e 94 f1 07 	call	0xfe2	; 0xfe2 <strcmp>
     932:	89 2b       	or	r24, r25
     934:	31 f5       	brne	.+76     	; 0x982 <__stack+0x83>
		{
			//leds de estados:
			PORTD |= (1 << PORTD7);   // Enciende PD7
     936:	8b b1       	in	r24, 0x0b	; 11
     938:	80 68       	ori	r24, 0x80	; 128
     93a:	8b b9       	out	0x0b, r24	; 11
			// encender PB0 (por si se encuentra apagado)
			PORTB |= (1 << PORTB0);
     93c:	85 b1       	in	r24, 0x05	; 5
     93e:	81 60       	ori	r24, 0x01	; 1
     940:	85 b9       	out	0x05, r24	; 5
			
			//logica de mi estado:
			modo = 5;
     942:	85 e0       	ldi	r24, 0x05	; 5
     944:	80 93 59 06 	sts	0x0659, r24	; 0x800659 <modo>

			writeString("\r\n===== EDITAR POSICIONES =====\r\n");
     948:	89 ef       	ldi	r24, 0xF9	; 249
     94a:	93 e0       	ldi	r25, 0x03	; 3
     94c:	0e 94 b3 03 	call	0x766	; 0x766 <writeString>

			writeString("1; > Editar Posicion 1\r\n");
     950:	8b e1       	ldi	r24, 0x1B	; 27
     952:	94 e0       	ldi	r25, 0x04	; 4
     954:	0e 94 b3 03 	call	0x766	; 0x766 <writeString>
			writeString("2; > Editar Posicion 2\r\n");
     958:	84 e3       	ldi	r24, 0x34	; 52
     95a:	94 e0       	ldi	r25, 0x04	; 4
     95c:	0e 94 b3 03 	call	0x766	; 0x766 <writeString>
			writeString("3; > Editar Posicion 3\r\n");
     960:	8d e4       	ldi	r24, 0x4D	; 77
     962:	94 e0       	ldi	r25, 0x04	; 4
     964:	0e 94 b3 03 	call	0x766	; 0x766 <writeString>
			writeString("4; > Editar Posicion 4\r\n");
     968:	86 e6       	ldi	r24, 0x66	; 102
     96a:	94 e0       	ldi	r25, 0x04	; 4
     96c:	0e 94 b3 03 	call	0x766	; 0x766 <writeString>
			writeString("5; > Editar Posicion 5\r\n");
     970:	8f e7       	ldi	r24, 0x7F	; 127
     972:	94 e0       	ldi	r25, 0x04	; 4
     974:	0e 94 b3 03 	call	0x766	; 0x766 <writeString>

			writeString("x; para salir\r\n");
     978:	85 eb       	ldi	r24, 0xB5	; 181
     97a:	92 e0       	ldi	r25, 0x02	; 2
     97c:	0e 94 b3 03 	call	0x766	; 0x766 <writeString>
     980:	97 c2       	rjmp	.+1326   	; 0xeb0 <__stack+0x5b1>
		}
		
		else
		{
			writeString("Opcion invalida\r\n");
     982:	88 e9       	ldi	r24, 0x98	; 152
     984:	94 e0       	ldi	r25, 0x04	; 4
     986:	0e 94 b3 03 	call	0x766	; 0x766 <writeString>
			printMenu();
     98a:	0e 94 c6 03 	call	0x78c	; 0x78c <printMenu>
     98e:	90 c2       	rjmp	.+1312   	; 0xeb0 <__stack+0x5b1>
/////////////////////////////////////////---Logica para navegar en cada una de las opciones dichas anteirormente
//para la opcion 1 


	//================ MODO OJOS ================//
	else if (modo == 1)
     990:	80 91 59 06 	lds	r24, 0x0659	; 0x800659 <modo>
     994:	81 30       	cpi	r24, 0x01	; 1
     996:	09 f0       	breq	.+2      	; 0x99a <__stack+0x9b>
     998:	c9 c0       	rjmp	.+402    	; 0xb2c <__stack+0x22d>
	{
		//leds de estados:
		PORTD |= (1 << PORTD7);   // Enciende PD7
     99a:	8b b1       	in	r24, 0x0b	; 11
     99c:	80 68       	ori	r24, 0x80	; 128
     99e:	8b b9       	out	0x0b, r24	; 11
		// apagar PB0 (por si se encuentra encendido)
		PORTB &= ~(1 << PORTB0);
     9a0:	85 b1       	in	r24, 0x05	; 5
     9a2:	8e 7f       	andi	r24, 0xFE	; 254
     9a4:	85 b9       	out	0x05, r24	; 5
		
		//logica de mi estado:
		
		if (strncmp(buffer, "I1:", 3) == 0)
     9a6:	43 e0       	ldi	r20, 0x03	; 3
     9a8:	50 e0       	ldi	r21, 0x00	; 0
     9aa:	6a ea       	ldi	r22, 0xAA	; 170
     9ac:	74 e0       	ldi	r23, 0x04	; 4
     9ae:	84 e6       	ldi	r24, 0x64	; 100
     9b0:	96 e0       	ldi	r25, 0x06	; 6
     9b2:	0e 94 fa 07 	call	0xff4	; 0xff4 <strncmp>
     9b6:	89 2b       	or	r24, r25
     9b8:	09 f5       	brne	.+66     	; 0x9fc <__stack+0xfd>
		{
			uint8_t ang = atoi(&buffer[3]);
     9ba:	87 e6       	ldi	r24, 0x67	; 103
     9bc:	96 e0       	ldi	r25, 0x06	; 6
     9be:	0e 94 d3 07 	call	0xfa6	; 0xfa6 <atoi>
     9c2:	c8 2f       	mov	r28, r24
			//se limita el įngulo para que no sobrepase los 180
			if (ang > 180)
     9c4:	85 3b       	cpi	r24, 0xB5	; 181
     9c6:	08 f0       	brcs	.+2      	; 0x9ca <__stack+0xcb>
			{
				ang = 180;
     9c8:	c4 eb       	ldi	r28, 0xB4	; 180
			}

			PWM1_SetDuty(ServoToOCR(ang)); 
     9ca:	8c 2f       	mov	r24, r28
     9cc:	0e 94 5f 03 	call	0x6be	; 0x6be <ServoToOCR>
     9d0:	0e 94 8d 01 	call	0x31a	; 0x31a <PWM1_SetDuty>

			writeString("I1 -> ");
     9d4:	85 e2       	ldi	r24, 0x25	; 37
     9d6:	91 e0       	ldi	r25, 0x01	; 1
     9d8:	0e 94 b3 03 	call	0x766	; 0x766 <writeString>
     9dc:	4a e0       	ldi	r20, 0x0A	; 10
     9de:	6a e5       	ldi	r22, 0x5A	; 90
     9e0:	76 e0       	ldi	r23, 0x06	; 6
     9e2:	8c 2f       	mov	r24, r28
     9e4:	90 e0       	ldi	r25, 0x00	; 0
     9e6:	0e 94 08 08 	call	0x1010	; 0x1010 <__itoa_ncheck>

			itoa(ang, out, 10);

			writeString(out);
     9ea:	8a e5       	ldi	r24, 0x5A	; 90
     9ec:	96 e0       	ldi	r25, 0x06	; 6
     9ee:	0e 94 b3 03 	call	0x766	; 0x766 <writeString>
			writeString("\r\n");
     9f2:	8f e5       	ldi	r24, 0x5F	; 95
     9f4:	92 e0       	ldi	r25, 0x02	; 2
     9f6:	0e 94 b3 03 	call	0x766	; 0x766 <writeString>
     9fa:	5a c2       	rjmp	.+1204   	; 0xeb0 <__stack+0x5b1>
		}

		else if (strncmp(buffer, "D1:", 3) == 0)
     9fc:	43 e0       	ldi	r20, 0x03	; 3
     9fe:	50 e0       	ldi	r21, 0x00	; 0
     a00:	6e ea       	ldi	r22, 0xAE	; 174
     a02:	74 e0       	ldi	r23, 0x04	; 4
     a04:	84 e6       	ldi	r24, 0x64	; 100
     a06:	96 e0       	ldi	r25, 0x06	; 6
     a08:	0e 94 fa 07 	call	0xff4	; 0xff4 <strncmp>
     a0c:	89 2b       	or	r24, r25
     a0e:	09 f5       	brne	.+66     	; 0xa52 <__stack+0x153>
		{
			uint8_t ang = atoi(&buffer[3]);
     a10:	87 e6       	ldi	r24, 0x67	; 103
     a12:	96 e0       	ldi	r25, 0x06	; 6
     a14:	0e 94 d3 07 	call	0xfa6	; 0xfa6 <atoi>
     a18:	c8 2f       	mov	r28, r24

			if (ang > 180)
     a1a:	85 3b       	cpi	r24, 0xB5	; 181
     a1c:	08 f0       	brcs	.+2      	; 0xa20 <__stack+0x121>
			{
				ang = 180;
     a1e:	c4 eb       	ldi	r28, 0xB4	; 180
			}

			PWM1_SetDuty2(ServoToOCR(ang));
     a20:	8c 2f       	mov	r24, r28
     a22:	0e 94 5f 03 	call	0x6be	; 0x6be <ServoToOCR>
     a26:	0e 94 92 01 	call	0x324	; 0x324 <PWM1_SetDuty2>

			writeString("D1 -> ");
     a2a:	8c e2       	ldi	r24, 0x2C	; 44
     a2c:	91 e0       	ldi	r25, 0x01	; 1
     a2e:	0e 94 b3 03 	call	0x766	; 0x766 <writeString>
     a32:	4a e0       	ldi	r20, 0x0A	; 10
     a34:	6a e5       	ldi	r22, 0x5A	; 90
     a36:	76 e0       	ldi	r23, 0x06	; 6
     a38:	8c 2f       	mov	r24, r28
     a3a:	90 e0       	ldi	r25, 0x00	; 0
     a3c:	0e 94 08 08 	call	0x1010	; 0x1010 <__itoa_ncheck>

			itoa(ang, out, 10);

			writeString(out);
     a40:	8a e5       	ldi	r24, 0x5A	; 90
     a42:	96 e0       	ldi	r25, 0x06	; 6
     a44:	0e 94 b3 03 	call	0x766	; 0x766 <writeString>
			writeString("\r\n");
     a48:	8f e5       	ldi	r24, 0x5F	; 95
     a4a:	92 e0       	ldi	r25, 0x02	; 2
     a4c:	0e 94 b3 03 	call	0x766	; 0x766 <writeString>
     a50:	2f c2       	rjmp	.+1118   	; 0xeb0 <__stack+0x5b1>
		}

		else if (strncmp(buffer, "I2:", 3) == 0)
     a52:	43 e0       	ldi	r20, 0x03	; 3
     a54:	50 e0       	ldi	r21, 0x00	; 0
     a56:	62 eb       	ldi	r22, 0xB2	; 178
     a58:	74 e0       	ldi	r23, 0x04	; 4
     a5a:	84 e6       	ldi	r24, 0x64	; 100
     a5c:	96 e0       	ldi	r25, 0x06	; 6
     a5e:	0e 94 fa 07 	call	0xff4	; 0xff4 <strncmp>
     a62:	89 2b       	or	r24, r25
     a64:	11 f5       	brne	.+68     	; 0xaaa <__stack+0x1ab>
		{
			uint8_t ang = atoi(&buffer[3]);
     a66:	87 e6       	ldi	r24, 0x67	; 103
     a68:	96 e0       	ldi	r25, 0x06	; 6
     a6a:	0e 94 d3 07 	call	0xfa6	; 0xfa6 <atoi>
     a6e:	c8 2f       	mov	r28, r24

			if (ang > 180)
     a70:	85 3b       	cpi	r24, 0xB5	; 181
     a72:	08 f0       	brcs	.+2      	; 0xa76 <__stack+0x177>
			{
				ang = 180;
     a74:	c4 eb       	ldi	r28, 0xB4	; 180
			}

			PWM0_SetDuty1(ServoToTicks(ang));
     a76:	8c 2f       	mov	r24, r28
     a78:	0e 94 6f 03 	call	0x6de	; 0x6de <ServoToTicks>
     a7c:	90 e0       	ldi	r25, 0x00	; 0
     a7e:	0e 94 59 02 	call	0x4b2	; 0x4b2 <PWM0_SetDuty1>

			writeString("I2 -> ");
     a82:	83 e3       	ldi	r24, 0x33	; 51
     a84:	91 e0       	ldi	r25, 0x01	; 1
     a86:	0e 94 b3 03 	call	0x766	; 0x766 <writeString>
     a8a:	4a e0       	ldi	r20, 0x0A	; 10
     a8c:	6a e5       	ldi	r22, 0x5A	; 90
     a8e:	76 e0       	ldi	r23, 0x06	; 6
     a90:	8c 2f       	mov	r24, r28
     a92:	90 e0       	ldi	r25, 0x00	; 0
     a94:	0e 94 08 08 	call	0x1010	; 0x1010 <__itoa_ncheck>

			itoa(ang, out, 10);

			writeString(out);
     a98:	8a e5       	ldi	r24, 0x5A	; 90
     a9a:	96 e0       	ldi	r25, 0x06	; 6
     a9c:	0e 94 b3 03 	call	0x766	; 0x766 <writeString>
			writeString("\r\n");
     aa0:	8f e5       	ldi	r24, 0x5F	; 95
     aa2:	92 e0       	ldi	r25, 0x02	; 2
     aa4:	0e 94 b3 03 	call	0x766	; 0x766 <writeString>
     aa8:	03 c2       	rjmp	.+1030   	; 0xeb0 <__stack+0x5b1>
		}

		else if (strncmp(buffer, "D2:", 3) == 0)
     aaa:	43 e0       	ldi	r20, 0x03	; 3
     aac:	50 e0       	ldi	r21, 0x00	; 0
     aae:	66 eb       	ldi	r22, 0xB6	; 182
     ab0:	74 e0       	ldi	r23, 0x04	; 4
     ab2:	84 e6       	ldi	r24, 0x64	; 100
     ab4:	96 e0       	ldi	r25, 0x06	; 6
     ab6:	0e 94 fa 07 	call	0xff4	; 0xff4 <strncmp>
     aba:	89 2b       	or	r24, r25
     abc:	11 f5       	brne	.+68     	; 0xb02 <__stack+0x203>
		{
			uint8_t ang = atoi(&buffer[3]);
     abe:	87 e6       	ldi	r24, 0x67	; 103
     ac0:	96 e0       	ldi	r25, 0x06	; 6
     ac2:	0e 94 d3 07 	call	0xfa6	; 0xfa6 <atoi>
     ac6:	c8 2f       	mov	r28, r24

			if (ang > 180)
     ac8:	85 3b       	cpi	r24, 0xB5	; 181
     aca:	08 f0       	brcs	.+2      	; 0xace <__stack+0x1cf>
			{
				ang = 180;
     acc:	c4 eb       	ldi	r28, 0xB4	; 180
			}

			PWM0_SetDuty2(ServoToTicks(ang));
     ace:	8c 2f       	mov	r24, r28
     ad0:	0e 94 6f 03 	call	0x6de	; 0x6de <ServoToTicks>
     ad4:	90 e0       	ldi	r25, 0x00	; 0
     ad6:	0e 94 5e 02 	call	0x4bc	; 0x4bc <PWM0_SetDuty2>

			writeString("D2 -> ");
     ada:	8a e3       	ldi	r24, 0x3A	; 58
     adc:	91 e0       	ldi	r25, 0x01	; 1
     ade:	0e 94 b3 03 	call	0x766	; 0x766 <writeString>
     ae2:	4a e0       	ldi	r20, 0x0A	; 10
     ae4:	6a e5       	ldi	r22, 0x5A	; 90
     ae6:	76 e0       	ldi	r23, 0x06	; 6
     ae8:	8c 2f       	mov	r24, r28
     aea:	90 e0       	ldi	r25, 0x00	; 0
     aec:	0e 94 08 08 	call	0x1010	; 0x1010 <__itoa_ncheck>

			itoa(ang, out, 10);

			writeString(out);
     af0:	8a e5       	ldi	r24, 0x5A	; 90
     af2:	96 e0       	ldi	r25, 0x06	; 6
     af4:	0e 94 b3 03 	call	0x766	; 0x766 <writeString>
			writeString("\r\n");
     af8:	8f e5       	ldi	r24, 0x5F	; 95
     afa:	92 e0       	ldi	r25, 0x02	; 2
     afc:	0e 94 b3 03 	call	0x766	; 0x766 <writeString>
     b00:	d7 c1       	rjmp	.+942    	; 0xeb0 <__stack+0x5b1>
		}

		else if (strcmp(buffer, "x") == 0)
     b02:	6a eb       	ldi	r22, 0xBA	; 186
     b04:	74 e0       	ldi	r23, 0x04	; 4
     b06:	84 e6       	ldi	r24, 0x64	; 100
     b08:	96 e0       	ldi	r25, 0x06	; 6
     b0a:	0e 94 f1 07 	call	0xfe2	; 0xfe2 <strcmp>
     b0e:	89 2b       	or	r24, r25
     b10:	41 f4       	brne	.+16     	; 0xb22 <__stack+0x223>
		{
			PORTD &= ~(1 << PORTD7);   // Apaga PD7--- mi led de estado uart
     b12:	8b b1       	in	r24, 0x0b	; 11
     b14:	8f 77       	andi	r24, 0x7F	; 127
     b16:	8b b9       	out	0x0b, r24	; 11
			
			modo = 0;
     b18:	10 92 59 06 	sts	0x0659, r1	; 0x800659 <modo>

			printMenu();
     b1c:	0e 94 c6 03 	call	0x78c	; 0x78c <printMenu>
     b20:	c7 c1       	rjmp	.+910    	; 0xeb0 <__stack+0x5b1>
		}

		else
		{
			writeString("Comando invalido\r\n");
     b22:	8c eb       	ldi	r24, 0xBC	; 188
     b24:	94 e0       	ldi	r25, 0x04	; 4
     b26:	0e 94 b3 03 	call	0x766	; 0x766 <writeString>
     b2a:	c2 c1       	rjmp	.+900    	; 0xeb0 <__stack+0x5b1>
		}
	}
//================ MODO PARPADOS =================================// MI OPCIÓN 2

		else if (modo == 2)
     b2c:	80 91 59 06 	lds	r24, 0x0659	; 0x800659 <modo>
     b30:	82 30       	cpi	r24, 0x02	; 2
     b32:	09 f0       	breq	.+2      	; 0xb36 <__stack+0x237>
     b34:	73 c0       	rjmp	.+230    	; 0xc1c <__stack+0x31d>
		{
			//led de estados
			PORTD |= (1 << PORTD7);   // Enciende PD7
     b36:	8b b1       	in	r24, 0x0b	; 11
     b38:	80 68       	ori	r24, 0x80	; 128
     b3a:	8b b9       	out	0x0b, r24	; 11

			// apagar PB0 (por si se encuentra encendido)
			PORTB &= ~(1 << PORTB0);
     b3c:	85 b1       	in	r24, 0x05	; 5
     b3e:	8e 7f       	andi	r24, 0xFE	; 254
     b40:	85 b9       	out	0x05, r24	; 5
			
			//lógica del modo
			if (strncmp(buffer, "M1:", 3) == 0)
     b42:	43 e0       	ldi	r20, 0x03	; 3
     b44:	50 e0       	ldi	r21, 0x00	; 0
     b46:	6f ec       	ldi	r22, 0xCF	; 207
     b48:	74 e0       	ldi	r23, 0x04	; 4
     b4a:	84 e6       	ldi	r24, 0x64	; 100
     b4c:	96 e0       	ldi	r25, 0x06	; 6
     b4e:	0e 94 fa 07 	call	0xff4	; 0xff4 <strncmp>
     b52:	89 2b       	or	r24, r25
     b54:	11 f5       	brne	.+68     	; 0xb9a <__stack+0x29b>
			{
			
				uint8_t ang = atoi(&buffer[3]);
     b56:	87 e6       	ldi	r24, 0x67	; 103
     b58:	96 e0       	ldi	r25, 0x06	; 6
     b5a:	0e 94 d3 07 	call	0xfa6	; 0xfa6 <atoi>
     b5e:	c8 2f       	mov	r28, r24

				if (ang > 180)
     b60:	85 3b       	cpi	r24, 0xB5	; 181
     b62:	08 f0       	brcs	.+2      	; 0xb66 <__stack+0x267>
				{
					ang = 180;
     b64:	c4 eb       	ldi	r28, 0xB4	; 180
				}

				PWM2_SetDuty1(ServoToTicks(ang));
     b66:	8c 2f       	mov	r24, r28
     b68:	0e 94 6f 03 	call	0x6de	; 0x6de <ServoToTicks>
     b6c:	90 e0       	ldi	r25, 0x00	; 0
     b6e:	0e 94 f6 01 	call	0x3ec	; 0x3ec <PWM2_SetDuty1>

				writeString("M1 -> ");
     b72:	81 e4       	ldi	r24, 0x41	; 65
     b74:	91 e0       	ldi	r25, 0x01	; 1
     b76:	0e 94 b3 03 	call	0x766	; 0x766 <writeString>
     b7a:	4a e0       	ldi	r20, 0x0A	; 10
     b7c:	6a e5       	ldi	r22, 0x5A	; 90
     b7e:	76 e0       	ldi	r23, 0x06	; 6
     b80:	8c 2f       	mov	r24, r28
     b82:	90 e0       	ldi	r25, 0x00	; 0
     b84:	0e 94 08 08 	call	0x1010	; 0x1010 <__itoa_ncheck>

				itoa(ang, out, 10);

				writeString(out);
     b88:	8a e5       	ldi	r24, 0x5A	; 90
     b8a:	96 e0       	ldi	r25, 0x06	; 6
     b8c:	0e 94 b3 03 	call	0x766	; 0x766 <writeString>
				writeString("\r\n");
     b90:	8f e5       	ldi	r24, 0x5F	; 95
     b92:	92 e0       	ldi	r25, 0x02	; 2
     b94:	0e 94 b3 03 	call	0x766	; 0x766 <writeString>
     b98:	8b c1       	rjmp	.+790    	; 0xeb0 <__stack+0x5b1>
			}

			else if (strncmp(buffer, "M2:", 3) == 0)
     b9a:	43 e0       	ldi	r20, 0x03	; 3
     b9c:	50 e0       	ldi	r21, 0x00	; 0
     b9e:	63 ed       	ldi	r22, 0xD3	; 211
     ba0:	74 e0       	ldi	r23, 0x04	; 4
     ba2:	84 e6       	ldi	r24, 0x64	; 100
     ba4:	96 e0       	ldi	r25, 0x06	; 6
     ba6:	0e 94 fa 07 	call	0xff4	; 0xff4 <strncmp>
     baa:	89 2b       	or	r24, r25
     bac:	11 f5       	brne	.+68     	; 0xbf2 <__stack+0x2f3>
			{
			
				uint8_t ang = atoi(&buffer[3]);
     bae:	87 e6       	ldi	r24, 0x67	; 103
     bb0:	96 e0       	ldi	r25, 0x06	; 6
     bb2:	0e 94 d3 07 	call	0xfa6	; 0xfa6 <atoi>
     bb6:	c8 2f       	mov	r28, r24

				if (ang > 180)
     bb8:	85 3b       	cpi	r24, 0xB5	; 181
     bba:	08 f0       	brcs	.+2      	; 0xbbe <__stack+0x2bf>
				{
					ang = 180;
     bbc:	c4 eb       	ldi	r28, 0xB4	; 180
				}

				PWM2_SetDuty2(ServoToTicks(ang));
     bbe:	8c 2f       	mov	r24, r28
     bc0:	0e 94 6f 03 	call	0x6de	; 0x6de <ServoToTicks>
     bc4:	90 e0       	ldi	r25, 0x00	; 0
     bc6:	0e 94 fb 01 	call	0x3f6	; 0x3f6 <PWM2_SetDuty2>

				writeString("M2 -> ");
     bca:	88 e4       	ldi	r24, 0x48	; 72
     bcc:	91 e0       	ldi	r25, 0x01	; 1
     bce:	0e 94 b3 03 	call	0x766	; 0x766 <writeString>
     bd2:	4a e0       	ldi	r20, 0x0A	; 10
     bd4:	6a e5       	ldi	r22, 0x5A	; 90
     bd6:	76 e0       	ldi	r23, 0x06	; 6
     bd8:	8c 2f       	mov	r24, r28
     bda:	90 e0       	ldi	r25, 0x00	; 0
     bdc:	0e 94 08 08 	call	0x1010	; 0x1010 <__itoa_ncheck>

				itoa(ang, out, 10);

				writeString(out);
     be0:	8a e5       	ldi	r24, 0x5A	; 90
     be2:	96 e0       	ldi	r25, 0x06	; 6
     be4:	0e 94 b3 03 	call	0x766	; 0x766 <writeString>
				writeString("\r\n");
     be8:	8f e5       	ldi	r24, 0x5F	; 95
     bea:	92 e0       	ldi	r25, 0x02	; 2
     bec:	0e 94 b3 03 	call	0x766	; 0x766 <writeString>
     bf0:	5f c1       	rjmp	.+702    	; 0xeb0 <__stack+0x5b1>
			}

			else if (strcmp(buffer, "x") == 0)
     bf2:	6a eb       	ldi	r22, 0xBA	; 186
     bf4:	74 e0       	ldi	r23, 0x04	; 4
     bf6:	84 e6       	ldi	r24, 0x64	; 100
     bf8:	96 e0       	ldi	r25, 0x06	; 6
     bfa:	0e 94 f1 07 	call	0xfe2	; 0xfe2 <strcmp>
     bfe:	89 2b       	or	r24, r25
     c00:	41 f4       	brne	.+16     	; 0xc12 <__stack+0x313>
			{
				PORTD &= ~(1 << PORTD7);   // Apaga PD7--- mi led de estado uart
     c02:	8b b1       	in	r24, 0x0b	; 11
     c04:	8f 77       	andi	r24, 0x7F	; 127
     c06:	8b b9       	out	0x0b, r24	; 11
				
				modo = 0;
     c08:	10 92 59 06 	sts	0x0659, r1	; 0x800659 <modo>

				printMenu();
     c0c:	0e 94 c6 03 	call	0x78c	; 0x78c <printMenu>
     c10:	4f c1       	rjmp	.+670    	; 0xeb0 <__stack+0x5b1>
			}

			else
			{
				writeString("Comando invalido\r\n");
     c12:	8c eb       	ldi	r24, 0xBC	; 188
     c14:	94 e0       	ldi	r25, 0x04	; 4
     c16:	0e 94 b3 03 	call	0x766	; 0x766 <writeString>
     c1a:	4a c1       	rjmp	.+660    	; 0xeb0 <__stack+0x5b1>
			}
		}
// ================ MODO PARA LA LECTURA// adc la opción 4 de mi menś

		else if (modo == 3)
     c1c:	80 91 59 06 	lds	r24, 0x0659	; 0x800659 <modo>
     c20:	83 30       	cpi	r24, 0x03	; 3
     c22:	d9 f4       	brne	.+54     	; 0xc5a <__stack+0x35b>
		{
			//led de estados
			PORTD &= ~(1 << PORTD7);   // apagar PD7
     c24:	8b b1       	in	r24, 0x0b	; 11
     c26:	8f 77       	andi	r24, 0x7F	; 127
     c28:	8b b9       	out	0x0b, r24	; 11

			// apagar PB0 (apagaaaaar
			PORTB &= ~(1 << PORTB0);//apagar pb0
     c2a:	85 b1       	in	r24, 0x05	; 5
     c2c:	8e 7f       	andi	r24, 0xFE	; 254
     c2e:	85 b9       	out	0x05, r24	; 5
			
			//lógica del modo
			
			
			if (strcmp(buffer, "x") == 0)
     c30:	6a eb       	ldi	r22, 0xBA	; 186
     c32:	74 e0       	ldi	r23, 0x04	; 4
     c34:	84 e6       	ldi	r24, 0x64	; 100
     c36:	96 e0       	ldi	r25, 0x06	; 6
     c38:	0e 94 f1 07 	call	0xfe2	; 0xfe2 <strcmp>
     c3c:	89 2b       	or	r24, r25
     c3e:	09 f0       	breq	.+2      	; 0xc42 <__stack+0x343>
     c40:	37 c1       	rjmp	.+622    	; 0xeb0 <__stack+0x5b1>
			{
				PORTB &= ~(1 << PORTB7);   // Apaga Pb0--- mi led de indicador de estado manual
     c42:	85 b1       	in	r24, 0x05	; 5
     c44:	8f 77       	andi	r24, 0x7F	; 127
     c46:	85 b9       	out	0x05, r24	; 5
				modo = 0;
     c48:	10 92 59 06 	sts	0x0659, r1	; 0x800659 <modo>

				writeString("Saliendo modo ADC\r\n");
     c4c:	87 ed       	ldi	r24, 0xD7	; 215
     c4e:	94 e0       	ldi	r25, 0x04	; 4
     c50:	0e 94 b3 03 	call	0x766	; 0x766 <writeString>

				printMenu();
     c54:	0e 94 c6 03 	call	0x78c	; 0x78c <printMenu>
     c58:	2b c1       	rjmp	.+598    	; 0xeb0 <__stack+0x5b1>
			}
		}
//================ REPRODUCIR POSICIONES ================// Opción 3(lectura de eeprom )  pero modo 4

		else if (modo == 4)
     c5a:	80 91 59 06 	lds	r24, 0x0659	; 0x800659 <modo>
     c5e:	84 30       	cpi	r24, 0x04	; 4
     c60:	09 f0       	breq	.+2      	; 0xc64 <__stack+0x365>
     c62:	8c c0       	rjmp	.+280    	; 0xd7c <__stack+0x47d>
		{
			if (strcmp(buffer, "1") == 0)
     c64:	61 e7       	ldi	r22, 0x71	; 113
     c66:	72 e0       	ldi	r23, 0x02	; 2
     c68:	84 e6       	ldi	r24, 0x64	; 100
     c6a:	96 e0       	ldi	r25, 0x06	; 6
     c6c:	0e 94 f1 07 	call	0xfe2	; 0xfe2 <strcmp>
     c70:	89 2b       	or	r24, r25
     c72:	a1 f4       	brne	.+40     	; 0xc9c <__stack+0x39d>
			{
				//led de estados
				PORTD |= (1 << PORTD7);   // encender PD7
     c74:	8b b1       	in	r24, 0x0b	; 11
     c76:	80 68       	ori	r24, 0x80	; 128
     c78:	8b b9       	out	0x0b, r24	; 11

				// encender PB0 
				PORTB |= (1 << PORTB0); //encender mi led
     c7a:	85 b1       	in	r24, 0x05	; 5
     c7c:	81 60       	ori	r24, 0x01	; 1
     c7e:	85 b9       	out	0x05, r24	; 5
				
				//lógica del modo
				
				writeString("Reproduciendo Posición 1: Sorpresa\r\n");
     c80:	8b ee       	ldi	r24, 0xEB	; 235
     c82:	94 e0       	ldi	r25, 0x04	; 4
     c84:	0e 94 b3 03 	call	0x766	; 0x766 <writeString>

				// Pose_Load(1);

				ServoMemory_LoadAndApply(1);
     c88:	81 e0       	ldi	r24, 0x01	; 1
     c8a:	0e 94 27 03 	call	0x64e	; 0x64e <ServoMemory_LoadAndApply>

				ServoMemory_PrintEEPROM();
     c8e:	0e 94 63 02 	call	0x4c6	; 0x4c6 <ServoMemory_PrintEEPROM>

				

				writeString("Posición aplicada\r\n");
     c92:	80 e1       	ldi	r24, 0x10	; 16
     c94:	95 e0       	ldi	r25, 0x05	; 5
     c96:	0e 94 b3 03 	call	0x766	; 0x766 <writeString>
     c9a:	0a c1       	rjmp	.+532    	; 0xeb0 <__stack+0x5b1>
			}

			else if (strcmp(buffer, "2") == 0)
     c9c:	65 ec       	ldi	r22, 0xC5	; 197
     c9e:	72 e0       	ldi	r23, 0x02	; 2
     ca0:	84 e6       	ldi	r24, 0x64	; 100
     ca2:	96 e0       	ldi	r25, 0x06	; 6
     ca4:	0e 94 f1 07 	call	0xfe2	; 0xfe2 <strcmp>
     ca8:	89 2b       	or	r24, r25
     caa:	71 f4       	brne	.+28     	; 0xcc8 <__stack+0x3c9>
			{
				writeString("Reproduciendo Posición 2: Neutral viendo Lado D\r\n");
     cac:	84 e2       	ldi	r24, 0x24	; 36
     cae:	95 e0       	ldi	r25, 0x05	; 5
     cb0:	0e 94 b3 03 	call	0x766	; 0x766 <writeString>

				// Pose_Load(2);
				ServoMemory_LoadAndApply(2);
     cb4:	82 e0       	ldi	r24, 0x02	; 2
     cb6:	0e 94 27 03 	call	0x64e	; 0x64e <ServoMemory_LoadAndApply>

				ServoMemory_PrintEEPROM();
     cba:	0e 94 63 02 	call	0x4c6	; 0x4c6 <ServoMemory_PrintEEPROM>
				

				writeString("Posición aplicada\r\n");
     cbe:	80 e1       	ldi	r24, 0x10	; 16
     cc0:	95 e0       	ldi	r25, 0x05	; 5
     cc2:	0e 94 b3 03 	call	0x766	; 0x766 <writeString>
     cc6:	f4 c0       	rjmp	.+488    	; 0xeb0 <__stack+0x5b1>
			}

			else if (strcmp(buffer, "3") == 0)
     cc8:	63 ef       	ldi	r22, 0xF3	; 243
     cca:	72 e0       	ldi	r23, 0x02	; 2
     ccc:	84 e6       	ldi	r24, 0x64	; 100
     cce:	96 e0       	ldi	r25, 0x06	; 6
     cd0:	0e 94 f1 07 	call	0xfe2	; 0xfe2 <strcmp>
     cd4:	89 2b       	or	r24, r25
     cd6:	71 f4       	brne	.+28     	; 0xcf4 <__stack+0x3f5>
			{
				writeString("Reproduciendo Posición 3: Neutral viendo Lado Iz\r\n");
     cd8:	86 e5       	ldi	r24, 0x56	; 86
     cda:	95 e0       	ldi	r25, 0x05	; 5
     cdc:	0e 94 b3 03 	call	0x766	; 0x766 <writeString>

				// Pose_Load(3);
				ServoMemory_LoadAndApply(3);
     ce0:	83 e0       	ldi	r24, 0x03	; 3
     ce2:	0e 94 27 03 	call	0x64e	; 0x64e <ServoMemory_LoadAndApply>

				ServoMemory_PrintEEPROM();
     ce6:	0e 94 63 02 	call	0x4c6	; 0x4c6 <ServoMemory_PrintEEPROM>
				
				writeString("Posición aplicada\r\n");
     cea:	80 e1       	ldi	r24, 0x10	; 16
     cec:	95 e0       	ldi	r25, 0x05	; 5
     cee:	0e 94 b3 03 	call	0x766	; 0x766 <writeString>
     cf2:	de c0       	rjmp	.+444    	; 0xeb0 <__stack+0x5b1>
			}

			else if (strcmp(buffer, "4") == 0)
     cf4:	6a ec       	ldi	r22, 0xCA	; 202
     cf6:	73 e0       	ldi	r23, 0x03	; 3
     cf8:	84 e6       	ldi	r24, 0x64	; 100
     cfa:	96 e0       	ldi	r25, 0x06	; 6
     cfc:	0e 94 f1 07 	call	0xfe2	; 0xfe2 <strcmp>
     d00:	89 2b       	or	r24, r25
     d02:	71 f4       	brne	.+28     	; 0xd20 <__stack+0x421>
			{
				writeString("Reproduciendo Posicion 4: Durmiendo\r\n");
     d04:	89 e8       	ldi	r24, 0x89	; 137
     d06:	95 e0       	ldi	r25, 0x05	; 5
     d08:	0e 94 b3 03 	call	0x766	; 0x766 <writeString>

				// Pose_Load(4);
				ServoMemory_LoadAndApply(4);
     d0c:	84 e0       	ldi	r24, 0x04	; 4
     d0e:	0e 94 27 03 	call	0x64e	; 0x64e <ServoMemory_LoadAndApply>

				ServoMemory_PrintEEPROM();
     d12:	0e 94 63 02 	call	0x4c6	; 0x4c6 <ServoMemory_PrintEEPROM>
				

				writeString("Posición aplicada\r\n");
     d16:	80 e1       	ldi	r24, 0x10	; 16
     d18:	95 e0       	ldi	r25, 0x05	; 5
     d1a:	0e 94 b3 03 	call	0x766	; 0x766 <writeString>
     d1e:	c8 c0       	rjmp	.+400    	; 0xeb0 <__stack+0x5b1>
			}

			else if (strcmp(buffer, "5") == 0)
     d20:	67 ef       	ldi	r22, 0xF7	; 247
     d22:	73 e0       	ldi	r23, 0x03	; 3
     d24:	84 e6       	ldi	r24, 0x64	; 100
     d26:	96 e0       	ldi	r25, 0x06	; 6
     d28:	0e 94 f1 07 	call	0xfe2	; 0xfe2 <strcmp>
     d2c:	89 2b       	or	r24, r25
     d2e:	71 f4       	brne	.+28     	; 0xd4c <__stack+0x44d>
			{
				writeString("Reproduciendo Posición 5: la editable por usuario\r\n");
     d30:	8f ea       	ldi	r24, 0xAF	; 175
     d32:	95 e0       	ldi	r25, 0x05	; 5
     d34:	0e 94 b3 03 	call	0x766	; 0x766 <writeString>

				// Pose_Load(5);
				ServoMemory_LoadAndApply(5);
     d38:	85 e0       	ldi	r24, 0x05	; 5
     d3a:	0e 94 27 03 	call	0x64e	; 0x64e <ServoMemory_LoadAndApply>

				ServoMemory_PrintEEPROM();
     d3e:	0e 94 63 02 	call	0x4c6	; 0x4c6 <ServoMemory_PrintEEPROM>
				

				writeString("Posición aplicada\r\n");
     d42:	80 e1       	ldi	r24, 0x10	; 16
     d44:	95 e0       	ldi	r25, 0x05	; 5
     d46:	0e 94 b3 03 	call	0x766	; 0x766 <writeString>
     d4a:	b2 c0       	rjmp	.+356    	; 0xeb0 <__stack+0x5b1>
			}

			else if (strcmp(buffer, "x") == 0)
     d4c:	6a eb       	ldi	r22, 0xBA	; 186
     d4e:	74 e0       	ldi	r23, 0x04	; 4
     d50:	84 e6       	ldi	r24, 0x64	; 100
     d52:	96 e0       	ldi	r25, 0x06	; 6
     d54:	0e 94 f1 07 	call	0xfe2	; 0xfe2 <strcmp>
     d58:	89 2b       	or	r24, r25
     d5a:	59 f4       	brne	.+22     	; 0xd72 <__stack+0x473>
			{
				PORTB &= ~(1 << PORTB0);   // Apaga PB0--- mi led de estado EEPROM
     d5c:	85 b1       	in	r24, 0x05	; 5
     d5e:	8e 7f       	andi	r24, 0xFE	; 254
     d60:	85 b9       	out	0x05, r24	; 5
				PORTD &= ~(1 << PORTD7);   // Apaga PD7--- mi led de estado EEEPROM
     d62:	8b b1       	in	r24, 0x0b	; 11
     d64:	8f 77       	andi	r24, 0x7F	; 127
     d66:	8b b9       	out	0x0b, r24	; 11
				modo = 0;
     d68:	10 92 59 06 	sts	0x0659, r1	; 0x800659 <modo>

				printMenu();
     d6c:	0e 94 c6 03 	call	0x78c	; 0x78c <printMenu>
     d70:	9f c0       	rjmp	.+318    	; 0xeb0 <__stack+0x5b1>
			}

			else
			{
				writeString("Opcion invalida\r\n");
     d72:	88 e9       	ldi	r24, 0x98	; 152
     d74:	94 e0       	ldi	r25, 0x04	; 4
     d76:	0e 94 b3 03 	call	0x766	; 0x766 <writeString>
     d7a:	9a c0       	rjmp	.+308    	; 0xeb0 <__stack+0x5b1>
			}
		}
//===================================== EDITAR POSICIONES // opción numero 5 del menś

		else if (modo == 5)
     d7c:	80 91 59 06 	lds	r24, 0x0659	; 0x800659 <modo>
     d80:	85 30       	cpi	r24, 0x05	; 5
     d82:	09 f0       	breq	.+2      	; 0xd86 <__stack+0x487>
     d84:	95 c0       	rjmp	.+298    	; 0xeb0 <__stack+0x5b1>
		{
			if (strcmp(buffer, "1") == 0)
     d86:	61 e7       	ldi	r22, 0x71	; 113
     d88:	72 e0       	ldi	r23, 0x02	; 2
     d8a:	84 e6       	ldi	r24, 0x64	; 100
     d8c:	96 e0       	ldi	r25, 0x06	; 6
     d8e:	0e 94 f1 07 	call	0xfe2	; 0xfe2 <strcmp>
     d92:	89 2b       	or	r24, r25
     d94:	b1 f4       	brne	.+44     	; 0xdc2 <__stack+0x4c3>
			{
				
				//led de estados
				PORTD |= (1 << PORTD7);   // encender PD7
     d96:	8b b1       	in	r24, 0x0b	; 11
     d98:	80 68       	ori	r24, 0x80	; 128
     d9a:	8b b9       	out	0x0b, r24	; 11

				// encender PB0
				PORTB |= (1 << PORTB0); //encender mi led
     d9c:	85 b1       	in	r24, 0x05	; 5
     d9e:	81 60       	ori	r24, 0x01	; 1
     da0:	85 b9       	out	0x05, r24	; 5
				
				//lógica del modo
				
				writeString("Editando Posicion 1\r\n");
     da2:	83 ee       	ldi	r24, 0xE3	; 227
     da4:	95 e0       	ldi	r25, 0x05	; 5
     da6:	0e 94 b3 03 	call	0x766	; 0x766 <writeString>

				// Pose_Edit(1);
				Pose_Save(
     daa:	e8 e0       	ldi	r30, 0x08	; 8
     dac:	f1 e0       	ldi	r31, 0x01	; 1
     dae:	c5 80       	ldd	r12, Z+5	; 0x05
     db0:	e4 80       	ldd	r14, Z+4	; 0x04
     db2:	03 81       	ldd	r16, Z+3	; 0x03
     db4:	22 81       	ldd	r18, Z+2	; 0x02
     db6:	41 81       	ldd	r20, Z+1	; 0x01
     db8:	60 81       	ld	r22, Z
     dba:	81 e0       	ldi	r24, 0x01	; 1
     dbc:	0e 94 3e 01 	call	0x27c	; 0x27c <Pose_Save>
     dc0:	77 c0       	rjmp	.+238    	; 0xeb0 <__stack+0x5b1>
				servoAng[4],
				servoAng[5]
				);
			}

			else if (strcmp(buffer, "2") == 0)
     dc2:	65 ec       	ldi	r22, 0xC5	; 197
     dc4:	72 e0       	ldi	r23, 0x02	; 2
     dc6:	84 e6       	ldi	r24, 0x64	; 100
     dc8:	96 e0       	ldi	r25, 0x06	; 6
     dca:	0e 94 f1 07 	call	0xfe2	; 0xfe2 <strcmp>
     dce:	89 2b       	or	r24, r25
     dd0:	81 f4       	brne	.+32     	; 0xdf2 <__stack+0x4f3>
			{
				writeString("Editando Posicion 2\r\n");
     dd2:	89 ef       	ldi	r24, 0xF9	; 249
     dd4:	95 e0       	ldi	r25, 0x05	; 5
     dd6:	0e 94 b3 03 	call	0x766	; 0x766 <writeString>

				// Pose_Edit(2);
				Pose_Save(
     dda:	e8 e0       	ldi	r30, 0x08	; 8
     ddc:	f1 e0       	ldi	r31, 0x01	; 1
     dde:	c5 80       	ldd	r12, Z+5	; 0x05
     de0:	e4 80       	ldd	r14, Z+4	; 0x04
     de2:	03 81       	ldd	r16, Z+3	; 0x03
     de4:	22 81       	ldd	r18, Z+2	; 0x02
     de6:	41 81       	ldd	r20, Z+1	; 0x01
     de8:	60 81       	ld	r22, Z
     dea:	82 e0       	ldi	r24, 0x02	; 2
     dec:	0e 94 3e 01 	call	0x27c	; 0x27c <Pose_Save>
     df0:	5f c0       	rjmp	.+190    	; 0xeb0 <__stack+0x5b1>
				servoAng[4],
				servoAng[5]
				);
			}

			else if (strcmp(buffer, "3") == 0)
     df2:	63 ef       	ldi	r22, 0xF3	; 243
     df4:	72 e0       	ldi	r23, 0x02	; 2
     df6:	84 e6       	ldi	r24, 0x64	; 100
     df8:	96 e0       	ldi	r25, 0x06	; 6
     dfa:	0e 94 f1 07 	call	0xfe2	; 0xfe2 <strcmp>
     dfe:	89 2b       	or	r24, r25
     e00:	81 f4       	brne	.+32     	; 0xe22 <__stack+0x523>
			{
				writeString("Editando Posicion 3\r\n");
     e02:	8f e0       	ldi	r24, 0x0F	; 15
     e04:	96 e0       	ldi	r25, 0x06	; 6
     e06:	0e 94 b3 03 	call	0x766	; 0x766 <writeString>

				// Pose_Edit(3);
				Pose_Save(
     e0a:	e8 e0       	ldi	r30, 0x08	; 8
     e0c:	f1 e0       	ldi	r31, 0x01	; 1
     e0e:	c5 80       	ldd	r12, Z+5	; 0x05
     e10:	e4 80       	ldd	r14, Z+4	; 0x04
     e12:	03 81       	ldd	r16, Z+3	; 0x03
     e14:	22 81       	ldd	r18, Z+2	; 0x02
     e16:	41 81       	ldd	r20, Z+1	; 0x01
     e18:	60 81       	ld	r22, Z
     e1a:	83 e0       	ldi	r24, 0x03	; 3
     e1c:	0e 94 3e 01 	call	0x27c	; 0x27c <Pose_Save>
     e20:	47 c0       	rjmp	.+142    	; 0xeb0 <__stack+0x5b1>
				servoAng[4],
				servoAng[5]
				);
			}

			else if (strcmp(buffer, "4") == 0)
     e22:	6a ec       	ldi	r22, 0xCA	; 202
     e24:	73 e0       	ldi	r23, 0x03	; 3
     e26:	84 e6       	ldi	r24, 0x64	; 100
     e28:	96 e0       	ldi	r25, 0x06	; 6
     e2a:	0e 94 f1 07 	call	0xfe2	; 0xfe2 <strcmp>
     e2e:	89 2b       	or	r24, r25
     e30:	81 f4       	brne	.+32     	; 0xe52 <__stack+0x553>
			{
				writeString("Editando Posicion 4\r\n");
     e32:	85 e2       	ldi	r24, 0x25	; 37
     e34:	96 e0       	ldi	r25, 0x06	; 6
     e36:	0e 94 b3 03 	call	0x766	; 0x766 <writeString>

				// Pose_Edit(4);
				Pose_Save(
     e3a:	e8 e0       	ldi	r30, 0x08	; 8
     e3c:	f1 e0       	ldi	r31, 0x01	; 1
     e3e:	c5 80       	ldd	r12, Z+5	; 0x05
     e40:	e4 80       	ldd	r14, Z+4	; 0x04
     e42:	03 81       	ldd	r16, Z+3	; 0x03
     e44:	22 81       	ldd	r18, Z+2	; 0x02
     e46:	41 81       	ldd	r20, Z+1	; 0x01
     e48:	60 81       	ld	r22, Z
     e4a:	84 e0       	ldi	r24, 0x04	; 4
     e4c:	0e 94 3e 01 	call	0x27c	; 0x27c <Pose_Save>
     e50:	2f c0       	rjmp	.+94     	; 0xeb0 <__stack+0x5b1>
				servoAng[4],
				servoAng[5]
				);
			}

			else if (strcmp(buffer, "5") == 0)
     e52:	67 ef       	ldi	r22, 0xF7	; 247
     e54:	73 e0       	ldi	r23, 0x03	; 3
     e56:	84 e6       	ldi	r24, 0x64	; 100
     e58:	96 e0       	ldi	r25, 0x06	; 6
     e5a:	0e 94 f1 07 	call	0xfe2	; 0xfe2 <strcmp>
     e5e:	89 2b       	or	r24, r25
     e60:	81 f4       	brne	.+32     	; 0xe82 <__stack+0x583>
			{
				writeString("Editando Posicion 5\r\n");
     e62:	8b e3       	ldi	r24, 0x3B	; 59
     e64:	96 e0       	ldi	r25, 0x06	; 6
     e66:	0e 94 b3 03 	call	0x766	; 0x766 <writeString>

				// Pose_Edit(5);
				Pose_Save(
     e6a:	e8 e0       	ldi	r30, 0x08	; 8
     e6c:	f1 e0       	ldi	r31, 0x01	; 1
     e6e:	c5 80       	ldd	r12, Z+5	; 0x05
     e70:	e4 80       	ldd	r14, Z+4	; 0x04
     e72:	03 81       	ldd	r16, Z+3	; 0x03
     e74:	22 81       	ldd	r18, Z+2	; 0x02
     e76:	41 81       	ldd	r20, Z+1	; 0x01
     e78:	60 81       	ld	r22, Z
     e7a:	85 e0       	ldi	r24, 0x05	; 5
     e7c:	0e 94 3e 01 	call	0x27c	; 0x27c <Pose_Save>
     e80:	17 c0       	rjmp	.+46     	; 0xeb0 <__stack+0x5b1>
				servoAng[4],
				servoAng[5]
				);
			}

			else if (strcmp(buffer, "x") == 0)
     e82:	6a eb       	ldi	r22, 0xBA	; 186
     e84:	74 e0       	ldi	r23, 0x04	; 4
     e86:	84 e6       	ldi	r24, 0x64	; 100
     e88:	96 e0       	ldi	r25, 0x06	; 6
     e8a:	0e 94 f1 07 	call	0xfe2	; 0xfe2 <strcmp>
     e8e:	89 2b       	or	r24, r25
     e90:	59 f4       	brne	.+22     	; 0xea8 <__stack+0x5a9>
			{
				PORTB &= ~(1 << PORTB0);   // Apaga PB0--- mi led de estado EEPROM
     e92:	85 b1       	in	r24, 0x05	; 5
     e94:	8e 7f       	andi	r24, 0xFE	; 254
     e96:	85 b9       	out	0x05, r24	; 5
				PORTD &= ~(1 << PORTD7);   // Apaga PD7--- mi led de estado EEEPROM
     e98:	8b b1       	in	r24, 0x0b	; 11
     e9a:	8f 77       	andi	r24, 0x7F	; 127
     e9c:	8b b9       	out	0x0b, r24	; 11
				
				modo = 0;
     e9e:	10 92 59 06 	sts	0x0659, r1	; 0x800659 <modo>

				printMenu();
     ea2:	0e 94 c6 03 	call	0x78c	; 0x78c <printMenu>
     ea6:	04 c0       	rjmp	.+8      	; 0xeb0 <__stack+0x5b1>
			}

			else
			{
				writeString("Opcion invalida\r\n");
     ea8:	88 e9       	ldi	r24, 0x98	; 152
     eaa:	94 e0       	ldi	r25, 0x04	; 4
     eac:	0e 94 b3 03 	call	0x766	; 0x766 <writeString>
			}
		}
	}
     eb0:	cf 91       	pop	r28
     eb2:	0f 91       	pop	r16
     eb4:	ef 90       	pop	r14
     eb6:	cf 90       	pop	r12
     eb8:	08 95       	ret

00000eba <__vector_18>:

//Rutina de interrupción para manejar el menś principal para comunicación rx 
//======================== ISR UART ==========================//

ISR(USART_RX_vect)
{
     eba:	1f 92       	push	r1
     ebc:	0f 92       	push	r0
     ebe:	0f b6       	in	r0, 0x3f	; 63
     ec0:	0f 92       	push	r0
     ec2:	11 24       	eor	r1, r1
     ec4:	2f 93       	push	r18
     ec6:	3f 93       	push	r19
     ec8:	4f 93       	push	r20
     eca:	5f 93       	push	r21
     ecc:	6f 93       	push	r22
     ece:	7f 93       	push	r23
     ed0:	8f 93       	push	r24
     ed2:	9f 93       	push	r25
     ed4:	af 93       	push	r26
     ed6:	bf 93       	push	r27
     ed8:	cf 93       	push	r28
     eda:	ef 93       	push	r30
     edc:	ff 93       	push	r31
	char c = UDR0;
     ede:	c0 91 c6 00 	lds	r28, 0x00C6	; 0x8000c6 <__TEXT_REGION_LENGTH__+0x7f80c6>

	writeChar(c);
     ee2:	8c 2f       	mov	r24, r28
     ee4:	0e 94 ac 03 	call	0x758	; 0x758 <writeChar>

	// Delimitador
	if (c == ';')
     ee8:	cb 33       	cpi	r28, 0x3B	; 59
     eea:	61 f4       	brne	.+24     	; 0xf04 <__vector_18+0x4a>
	{
		buffer[idx] = '\0';
     eec:	e0 91 57 06 	lds	r30, 0x0657	; 0x800657 <idx>
     ef0:	f0 e0       	ldi	r31, 0x00	; 0
     ef2:	ec 59       	subi	r30, 0x9C	; 156
     ef4:	f9 4f       	sbci	r31, 0xF9	; 249
     ef6:	10 82       	st	Z, r1

		idx = 0;
     ef8:	10 92 57 06 	sts	0x0657, r1	; 0x800657 <idx>

		commandReady = 1;
     efc:	81 e0       	ldi	r24, 0x01	; 1
     efe:	80 93 58 06 	sts	0x0658, r24	; 0x800658 <commandReady>
     f02:	0e c0       	rjmp	.+28     	; 0xf20 <__vector_18+0x66>
	}

	else
	{
		if (idx < sizeof(buffer) - 1)
     f04:	80 91 57 06 	lds	r24, 0x0657	; 0x800657 <idx>
     f08:	83 31       	cpi	r24, 0x13	; 19
     f0a:	50 f4       	brcc	.+20     	; 0xf20 <__vector_18+0x66>
		{
			buffer[idx++] = c;
     f0c:	e0 91 57 06 	lds	r30, 0x0657	; 0x800657 <idx>
     f10:	81 e0       	ldi	r24, 0x01	; 1
     f12:	8e 0f       	add	r24, r30
     f14:	80 93 57 06 	sts	0x0657, r24	; 0x800657 <idx>
     f18:	f0 e0       	ldi	r31, 0x00	; 0
     f1a:	ec 59       	subi	r30, 0x9C	; 156
     f1c:	f9 4f       	sbci	r31, 0xF9	; 249
     f1e:	c0 83       	st	Z, r28
		}
	}
     f20:	ff 91       	pop	r31
     f22:	ef 91       	pop	r30
     f24:	cf 91       	pop	r28
     f26:	bf 91       	pop	r27
     f28:	af 91       	pop	r26
     f2a:	9f 91       	pop	r25
     f2c:	8f 91       	pop	r24
     f2e:	7f 91       	pop	r23
     f30:	6f 91       	pop	r22
     f32:	5f 91       	pop	r21
     f34:	4f 91       	pop	r20
     f36:	3f 91       	pop	r19
     f38:	2f 91       	pop	r18
     f3a:	0f 90       	pop	r0
     f3c:	0f be       	out	0x3f, r0	; 63
     f3e:	0f 90       	pop	r0
     f40:	1f 90       	pop	r1
     f42:	18 95       	reti

00000f44 <__udivmodsi4>:
     f44:	a1 e2       	ldi	r26, 0x21	; 33
     f46:	1a 2e       	mov	r1, r26
     f48:	aa 1b       	sub	r26, r26
     f4a:	bb 1b       	sub	r27, r27
     f4c:	fd 01       	movw	r30, r26
     f4e:	0d c0       	rjmp	.+26     	; 0xf6a <__udivmodsi4_ep>

00000f50 <__udivmodsi4_loop>:
     f50:	aa 1f       	adc	r26, r26
     f52:	bb 1f       	adc	r27, r27
     f54:	ee 1f       	adc	r30, r30
     f56:	ff 1f       	adc	r31, r31
     f58:	a2 17       	cp	r26, r18
     f5a:	b3 07       	cpc	r27, r19
     f5c:	e4 07       	cpc	r30, r20
     f5e:	f5 07       	cpc	r31, r21
     f60:	20 f0       	brcs	.+8      	; 0xf6a <__udivmodsi4_ep>
     f62:	a2 1b       	sub	r26, r18
     f64:	b3 0b       	sbc	r27, r19
     f66:	e4 0b       	sbc	r30, r20
     f68:	f5 0b       	sbc	r31, r21

00000f6a <__udivmodsi4_ep>:
     f6a:	66 1f       	adc	r22, r22
     f6c:	77 1f       	adc	r23, r23
     f6e:	88 1f       	adc	r24, r24
     f70:	99 1f       	adc	r25, r25
     f72:	1a 94       	dec	r1
     f74:	69 f7       	brne	.-38     	; 0xf50 <__udivmodsi4_loop>
     f76:	60 95       	com	r22
     f78:	70 95       	com	r23
     f7a:	80 95       	com	r24
     f7c:	90 95       	com	r25
     f7e:	9b 01       	movw	r18, r22
     f80:	ac 01       	movw	r20, r24
     f82:	bd 01       	movw	r22, r26
     f84:	cf 01       	movw	r24, r30
     f86:	08 95       	ret

00000f88 <__umulhisi3>:
     f88:	a2 9f       	mul	r26, r18
     f8a:	b0 01       	movw	r22, r0
     f8c:	b3 9f       	mul	r27, r19
     f8e:	c0 01       	movw	r24, r0
     f90:	a3 9f       	mul	r26, r19
     f92:	70 0d       	add	r23, r0
     f94:	81 1d       	adc	r24, r1
     f96:	11 24       	eor	r1, r1
     f98:	91 1d       	adc	r25, r1
     f9a:	b2 9f       	mul	r27, r18
     f9c:	70 0d       	add	r23, r0
     f9e:	81 1d       	adc	r24, r1
     fa0:	11 24       	eor	r1, r1
     fa2:	91 1d       	adc	r25, r1
     fa4:	08 95       	ret

00000fa6 <atoi>:
     fa6:	fc 01       	movw	r30, r24
     fa8:	88 27       	eor	r24, r24
     faa:	99 27       	eor	r25, r25
     fac:	e8 94       	clt
     fae:	21 91       	ld	r18, Z+
     fb0:	20 32       	cpi	r18, 0x20	; 32
     fb2:	e9 f3       	breq	.-6      	; 0xfae <atoi+0x8>
     fb4:	29 30       	cpi	r18, 0x09	; 9
     fb6:	10 f0       	brcs	.+4      	; 0xfbc <atoi+0x16>
     fb8:	2e 30       	cpi	r18, 0x0E	; 14
     fba:	c8 f3       	brcs	.-14     	; 0xfae <atoi+0x8>
     fbc:	2b 32       	cpi	r18, 0x2B	; 43
     fbe:	41 f0       	breq	.+16     	; 0xfd0 <atoi+0x2a>
     fc0:	2d 32       	cpi	r18, 0x2D	; 45
     fc2:	39 f4       	brne	.+14     	; 0xfd2 <atoi+0x2c>
     fc4:	68 94       	set
     fc6:	04 c0       	rjmp	.+8      	; 0xfd0 <atoi+0x2a>
     fc8:	0e 94 13 08 	call	0x1026	; 0x1026 <__mulhi_const_10>
     fcc:	82 0f       	add	r24, r18
     fce:	91 1d       	adc	r25, r1
     fd0:	21 91       	ld	r18, Z+
     fd2:	20 53       	subi	r18, 0x30	; 48
     fd4:	2a 30       	cpi	r18, 0x0A	; 10
     fd6:	c0 f3       	brcs	.-16     	; 0xfc8 <atoi+0x22>
     fd8:	1e f4       	brtc	.+6      	; 0xfe0 <atoi+0x3a>
     fda:	90 95       	com	r25
     fdc:	81 95       	neg	r24
     fde:	9f 4f       	sbci	r25, 0xFF	; 255
     fe0:	08 95       	ret

00000fe2 <strcmp>:
     fe2:	fb 01       	movw	r30, r22
     fe4:	dc 01       	movw	r26, r24
     fe6:	8d 91       	ld	r24, X+
     fe8:	01 90       	ld	r0, Z+
     fea:	80 19       	sub	r24, r0
     fec:	01 10       	cpse	r0, r1
     fee:	d9 f3       	breq	.-10     	; 0xfe6 <strcmp+0x4>
     ff0:	99 0b       	sbc	r25, r25
     ff2:	08 95       	ret

00000ff4 <strncmp>:
     ff4:	fb 01       	movw	r30, r22
     ff6:	dc 01       	movw	r26, r24
     ff8:	41 50       	subi	r20, 0x01	; 1
     ffa:	50 40       	sbci	r21, 0x00	; 0
     ffc:	30 f0       	brcs	.+12     	; 0x100a <strncmp+0x16>
     ffe:	8d 91       	ld	r24, X+
    1000:	01 90       	ld	r0, Z+
    1002:	80 19       	sub	r24, r0
    1004:	19 f4       	brne	.+6      	; 0x100c <strncmp+0x18>
    1006:	00 20       	and	r0, r0
    1008:	b9 f7       	brne	.-18     	; 0xff8 <strncmp+0x4>
    100a:	88 1b       	sub	r24, r24
    100c:	99 0b       	sbc	r25, r25
    100e:	08 95       	ret

00001010 <__itoa_ncheck>:
    1010:	bb 27       	eor	r27, r27
    1012:	4a 30       	cpi	r20, 0x0A	; 10
    1014:	31 f4       	brne	.+12     	; 0x1022 <__itoa_ncheck+0x12>
    1016:	99 23       	and	r25, r25
    1018:	22 f4       	brpl	.+8      	; 0x1022 <__itoa_ncheck+0x12>
    101a:	bd e2       	ldi	r27, 0x2D	; 45
    101c:	90 95       	com	r25
    101e:	81 95       	neg	r24
    1020:	9f 4f       	sbci	r25, 0xFF	; 255
    1022:	0c 94 1c 08 	jmp	0x1038	; 0x1038 <__utoa_common>

00001026 <__mulhi_const_10>:
    1026:	7a e0       	ldi	r23, 0x0A	; 10
    1028:	97 9f       	mul	r25, r23
    102a:	90 2d       	mov	r25, r0
    102c:	87 9f       	mul	r24, r23
    102e:	80 2d       	mov	r24, r0
    1030:	91 0d       	add	r25, r1
    1032:	11 24       	eor	r1, r1
    1034:	08 95       	ret

00001036 <__utoa_ncheck>:
    1036:	bb 27       	eor	r27, r27

00001038 <__utoa_common>:
    1038:	fb 01       	movw	r30, r22
    103a:	55 27       	eor	r21, r21
    103c:	aa 27       	eor	r26, r26
    103e:	88 0f       	add	r24, r24
    1040:	99 1f       	adc	r25, r25
    1042:	aa 1f       	adc	r26, r26
    1044:	a4 17       	cp	r26, r20
    1046:	10 f0       	brcs	.+4      	; 0x104c <__utoa_common+0x14>
    1048:	a4 1b       	sub	r26, r20
    104a:	83 95       	inc	r24
    104c:	50 51       	subi	r21, 0x10	; 16
    104e:	b9 f7       	brne	.-18     	; 0x103e <__utoa_common+0x6>
    1050:	a0 5d       	subi	r26, 0xD0	; 208
    1052:	aa 33       	cpi	r26, 0x3A	; 58
    1054:	08 f0       	brcs	.+2      	; 0x1058 <__utoa_common+0x20>
    1056:	a9 5d       	subi	r26, 0xD9	; 217
    1058:	a1 93       	st	Z+, r26
    105a:	00 97       	sbiw	r24, 0x00	; 0
    105c:	79 f7       	brne	.-34     	; 0x103c <__utoa_common+0x4>
    105e:	b1 11       	cpse	r27, r1
    1060:	b1 93       	st	Z+, r27
    1062:	11 92       	st	Z+, r1
    1064:	cb 01       	movw	r24, r22
    1066:	0c 94 35 08 	jmp	0x106a	; 0x106a <strrev>

0000106a <strrev>:
    106a:	dc 01       	movw	r26, r24
    106c:	fc 01       	movw	r30, r24
    106e:	67 2f       	mov	r22, r23
    1070:	71 91       	ld	r23, Z+
    1072:	77 23       	and	r23, r23
    1074:	e1 f7       	brne	.-8      	; 0x106e <strrev+0x4>
    1076:	32 97       	sbiw	r30, 0x02	; 2
    1078:	04 c0       	rjmp	.+8      	; 0x1082 <strrev+0x18>
    107a:	7c 91       	ld	r23, X
    107c:	6d 93       	st	X+, r22
    107e:	70 83       	st	Z, r23
    1080:	62 91       	ld	r22, -Z
    1082:	ae 17       	cp	r26, r30
    1084:	bf 07       	cpc	r27, r31
    1086:	c8 f3       	brcs	.-14     	; 0x107a <strrev+0x10>
    1088:	08 95       	ret

0000108a <eeprom_read_byte>:
    108a:	f9 99       	sbic	0x1f, 1	; 31
    108c:	fe cf       	rjmp	.-4      	; 0x108a <eeprom_read_byte>
    108e:	92 bd       	out	0x22, r25	; 34
    1090:	81 bd       	out	0x21, r24	; 33
    1092:	f8 9a       	sbi	0x1f, 0	; 31
    1094:	99 27       	eor	r25, r25
    1096:	80 b5       	in	r24, 0x20	; 32
    1098:	08 95       	ret

0000109a <eeprom_update_byte>:
    109a:	26 2f       	mov	r18, r22

0000109c <eeprom_update_r18>:
    109c:	f9 99       	sbic	0x1f, 1	; 31
    109e:	fe cf       	rjmp	.-4      	; 0x109c <eeprom_update_r18>
    10a0:	92 bd       	out	0x22, r25	; 34
    10a2:	81 bd       	out	0x21, r24	; 33
    10a4:	f8 9a       	sbi	0x1f, 0	; 31
    10a6:	01 97       	sbiw	r24, 0x01	; 1
    10a8:	00 b4       	in	r0, 0x20	; 32
    10aa:	02 16       	cp	r0, r18
    10ac:	39 f0       	breq	.+14     	; 0x10bc <eeprom_update_r18+0x20>
    10ae:	1f ba       	out	0x1f, r1	; 31
    10b0:	20 bd       	out	0x20, r18	; 32
    10b2:	0f b6       	in	r0, 0x3f	; 63
    10b4:	f8 94       	cli
    10b6:	fa 9a       	sbi	0x1f, 2	; 31
    10b8:	f9 9a       	sbi	0x1f, 1	; 31
    10ba:	0f be       	out	0x3f, r0	; 63
    10bc:	08 95       	ret

000010be <_exit>:
    10be:	f8 94       	cli

000010c0 <__stop_program>:
    10c0:	ff cf       	rjmp	.-2      	; 0x10c0 <__stop_program>
