
P2_Animatronic_.elf:     file format elf32-avr

Sections:
Idx Name          Size      VMA       LMA       File off  Algn
  0 .data         00000178  00800100  00000738  000007cc  2**0
                  CONTENTS, ALLOC, LOAD, DATA
  1 .text         00000738  00000000  00000000  00000094  2**1
                  CONTENTS, ALLOC, LOAD, READONLY, CODE
  2 .bss          00000030  00800278  00800278  00000944  2**0
                  ALLOC
  3 .comment      00000030  00000000  00000000  00000944  2**0
                  CONTENTS, READONLY
  4 .note.gnu.avr.deviceinfo 00000040  00000000  00000000  00000974  2**2
                  CONTENTS, READONLY
  5 .debug_aranges 000000d8  00000000  00000000  000009b4  2**0
                  CONTENTS, READONLY, DEBUGGING
  6 .debug_info   000014ef  00000000  00000000  00000a8c  2**0
                  CONTENTS, READONLY, DEBUGGING
  7 .debug_abbrev 000009f9  00000000  00000000  00001f7b  2**0
                  CONTENTS, READONLY, DEBUGGING
  8 .debug_line   0000086b  00000000  00000000  00002974  2**0
                  CONTENTS, READONLY, DEBUGGING
  9 .debug_frame  000001dc  00000000  00000000  000031e0  2**2
                  CONTENTS, READONLY, DEBUGGING
 10 .debug_str    00000501  00000000  00000000  000033bc  2**0
                  CONTENTS, READONLY, DEBUGGING
 11 .debug_loc    000004cd  00000000  00000000  000038bd  2**0
                  CONTENTS, READONLY, DEBUGGING
 12 .debug_ranges 00000098  00000000  00000000  00003d8a  2**0
                  CONTENTS, READONLY, DEBUGGING

Disassembly of section .text:

00000000 <__vectors>:
   0:	0c 94 34 00 	jmp	0x68	; 0x68 <__ctors_end>
   4:	0c 94 51 00 	jmp	0xa2	; 0xa2 <__bad_interrupt>
   8:	0c 94 51 00 	jmp	0xa2	; 0xa2 <__bad_interrupt>
   c:	0c 94 51 00 	jmp	0xa2	; 0xa2 <__bad_interrupt>
  10:	0c 94 51 00 	jmp	0xa2	; 0xa2 <__bad_interrupt>
  14:	0c 94 51 00 	jmp	0xa2	; 0xa2 <__bad_interrupt>
  18:	0c 94 51 00 	jmp	0xa2	; 0xa2 <__bad_interrupt>
  1c:	0c 94 51 00 	jmp	0xa2	; 0xa2 <__bad_interrupt>
  20:	0c 94 51 00 	jmp	0xa2	; 0xa2 <__bad_interrupt>
  24:	0c 94 51 00 	jmp	0xa2	; 0xa2 <__bad_interrupt>
  28:	0c 94 51 00 	jmp	0xa2	; 0xa2 <__bad_interrupt>
  2c:	0c 94 aa 02 	jmp	0x554	; 0x554 <__vector_11>
  30:	0c 94 51 00 	jmp	0xa2	; 0xa2 <__bad_interrupt>
  34:	0c 94 51 00 	jmp	0xa2	; 0xa2 <__bad_interrupt>
  38:	0c 94 51 00 	jmp	0xa2	; 0xa2 <__bad_interrupt>
  3c:	0c 94 51 00 	jmp	0xa2	; 0xa2 <__bad_interrupt>
  40:	0c 94 42 02 	jmp	0x484	; 0x484 <__vector_16>
  44:	0c 94 51 00 	jmp	0xa2	; 0xa2 <__bad_interrupt>
  48:	0c 94 ba 00 	jmp	0x174	; 0x174 <__vector_18>
  4c:	0c 94 51 00 	jmp	0xa2	; 0xa2 <__bad_interrupt>
  50:	0c 94 51 00 	jmp	0xa2	; 0xa2 <__bad_interrupt>
  54:	0c 94 51 00 	jmp	0xa2	; 0xa2 <__bad_interrupt>
  58:	0c 94 51 00 	jmp	0xa2	; 0xa2 <__bad_interrupt>
  5c:	0c 94 51 00 	jmp	0xa2	; 0xa2 <__bad_interrupt>
  60:	0c 94 51 00 	jmp	0xa2	; 0xa2 <__bad_interrupt>
  64:	0c 94 51 00 	jmp	0xa2	; 0xa2 <__bad_interrupt>

00000068 <__ctors_end>:
  68:	11 24       	eor	r1, r1
  6a:	1f be       	out	0x3f, r1	; 63
  6c:	cf ef       	ldi	r28, 0xFF	; 255
  6e:	d8 e0       	ldi	r29, 0x08	; 8
  70:	de bf       	out	0x3e, r29	; 62
  72:	cd bf       	out	0x3d, r28	; 61

00000074 <__do_copy_data>:
  74:	12 e0       	ldi	r17, 0x02	; 2
  76:	a0 e0       	ldi	r26, 0x00	; 0
  78:	b1 e0       	ldi	r27, 0x01	; 1
  7a:	e8 e3       	ldi	r30, 0x38	; 56
  7c:	f7 e0       	ldi	r31, 0x07	; 7
  7e:	02 c0       	rjmp	.+4      	; 0x84 <__do_copy_data+0x10>
  80:	05 90       	lpm	r0, Z+
  82:	0d 92       	st	X+, r0
  84:	a8 37       	cpi	r26, 0x78	; 120
  86:	b1 07       	cpc	r27, r17
  88:	d9 f7       	brne	.-10     	; 0x80 <__do_copy_data+0xc>

0000008a <__do_clear_bss>:
  8a:	22 e0       	ldi	r18, 0x02	; 2
  8c:	a8 e7       	ldi	r26, 0x78	; 120
  8e:	b2 e0       	ldi	r27, 0x02	; 2
  90:	01 c0       	rjmp	.+2      	; 0x94 <.do_clear_bss_start>

00000092 <.do_clear_bss_loop>:
  92:	1d 92       	st	X+, r1

00000094 <.do_clear_bss_start>:
  94:	a8 3a       	cpi	r26, 0xA8	; 168
  96:	b2 07       	cpc	r27, r18
  98:	e1 f7       	brne	.-8      	; 0x92 <.do_clear_bss_loop>
  9a:	0e 94 a9 00 	call	0x152	; 0x152 <main>
  9e:	0c 94 9a 03 	jmp	0x734	; 0x734 <_exit>

000000a2 <__bad_interrupt>:
  a2:	0c 94 00 00 	jmp	0	; 0x0 <__vectors>

000000a6 <ADC_Init>:
#include <avr/io.h>

void ADC_Init(void)
{
	// Referencia AVcc (5V)
	ADMUX = (1 << REFS0);
  a6:	80 e4       	ldi	r24, 0x40	; 64
  a8:	80 93 7c 00 	sts	0x007C, r24	; 0x80007c <__TEXT_REGION_LENGTH__+0x7f807c>

	// Habilitar ADC + prescaler 128 (~125 kHz)
	ADCSRA = (1 << ADEN) |
  ac:	87 e8       	ldi	r24, 0x87	; 135
  ae:	80 93 7a 00 	sts	0x007A, r24	; 0x80007a <__TEXT_REGION_LENGTH__+0x7f807a>
  b2:	08 95       	ret

000000b4 <intUART>:
//************ Modulo  para Comunicación ***************//
// Inicialización UART
void intUART(void)
{
	// RX (PD0) entrada
	DDRD &= ~(1<<DDD0);
  b4:	8a b1       	in	r24, 0x0a	; 10
  b6:	8e 7f       	andi	r24, 0xFE	; 254
  b8:	8a b9       	out	0x0a, r24	; 10

	// TX (PD1) salida
	DDRD |= (1<<DDD1);
  ba:	8a b1       	in	r24, 0x0a	; 10
  bc:	82 60       	ori	r24, 0x02	; 2
  be:	8a b9       	out	0x0a, r24	; 10

	UCSR0A = 0;
  c0:	10 92 c0 00 	sts	0x00C0, r1	; 0x8000c0 <__TEXT_REGION_LENGTH__+0x7f80c0>

	
	// Habilitar RX, TX e interrupción RX
	UCSR0B = (1<<RXCIE0) | (1<<RXEN0) | (1<<TXEN0);
  c4:	88 e9       	ldi	r24, 0x98	; 152
  c6:	80 93 c1 00 	sts	0x00C1, r24	; 0x8000c1 <__TEXT_REGION_LENGTH__+0x7f80c1>
	//si solo habilito la de tx, solo se manda, si habilito el rx me permite recibir el mensaje


	// 8 bits de datos
	UCSR0C = (1<<UCSZ01) | (1<<UCSZ00);
  ca:	86 e0       	ldi	r24, 0x06	; 6
  cc:	80 93 c2 00 	sts	0x00C2, r24	; 0x8000c2 <__TEXT_REGION_LENGTH__+0x7f80c2>

	// Baudrate 9600 parap 16MHz
	UBRR0 = 103;
  d0:	87 e6       	ldi	r24, 0x67	; 103
  d2:	90 e0       	ldi	r25, 0x00	; 0
  d4:	90 93 c5 00 	sts	0x00C5, r25	; 0x8000c5 <__TEXT_REGION_LENGTH__+0x7f80c5>
  d8:	80 93 c4 00 	sts	0x00C4, r24	; 0x8000c4 <__TEXT_REGION_LENGTH__+0x7f80c4>
  dc:	08 95       	ret

000000de <writeChar>:

// *********** Modulo de escritura en TERMINAL  **********//
// Enviar un carácter
void writeChar(char c)
{
	while (!(UCSR0A & (1<<UDRE0))); // Esperar buffer vacío
  de:	90 91 c0 00 	lds	r25, 0x00C0	; 0x8000c0 <__TEXT_REGION_LENGTH__+0x7f80c0>
  e2:	95 ff       	sbrs	r25, 5
  e4:	fc cf       	rjmp	.-8      	; 0xde <writeChar>
	UDR0 = c;
  e6:	80 93 c6 00 	sts	0x00C6, r24	; 0x8000c6 <__TEXT_REGION_LENGTH__+0x7f80c6>
  ea:	08 95       	ret

000000ec <writeString>:
}

// Enviar string

void writeString(char *string)
{
  ec:	0f 93       	push	r16
  ee:	1f 93       	push	r17
  f0:	cf 93       	push	r28
  f2:	8c 01       	movw	r16, r24
	for (uint8_t i = 0; string[i] != '\0'; i++)
  f4:	c0 e0       	ldi	r28, 0x00	; 0
  f6:	03 c0       	rjmp	.+6      	; 0xfe <writeString+0x12>
	{
		writeChar(string[i]);
  f8:	0e 94 6f 00 	call	0xde	; 0xde <writeChar>

// Enviar string

void writeString(char *string)
{
	for (uint8_t i = 0; string[i] != '\0'; i++)
  fc:	cf 5f       	subi	r28, 0xFF	; 255
  fe:	f8 01       	movw	r30, r16
 100:	ec 0f       	add	r30, r28
 102:	f1 1d       	adc	r31, r1
 104:	80 81       	ld	r24, Z
 106:	81 11       	cpse	r24, r1
 108:	f7 cf       	rjmp	.-18     	; 0xf8 <writeString+0xc>
	{
		writeChar(string[i]);
	}
}
 10a:	cf 91       	pop	r28
 10c:	1f 91       	pop	r17
 10e:	0f 91       	pop	r16
 110:	08 95       	ret

00000112 <printMenu>:
// NON-Interrupt subroutines

//para el menu
void printMenu(void)
{
	writeString("=========== Menu Animatrónico=============\r\n");
 112:	80 e0       	ldi	r24, 0x00	; 0
 114:	91 e0       	ldi	r25, 0x01	; 1
 116:	0e 94 76 00 	call	0xec	; 0xec <writeString>
	writeString("1: Mover Ojos \r\n");
 11a:	8d e2       	ldi	r24, 0x2D	; 45
 11c:	91 e0       	ldi	r25, 0x01	; 1
 11e:	0e 94 76 00 	call	0xec	; 0xec <writeString>
	writeString("2: Mover Parpados\r\n");
 122:	8e e3       	ldi	r24, 0x3E	; 62
 124:	91 e0       	ldi	r25, 0x01	; 1
 126:	0e 94 76 00 	call	0xec	; 0xec <writeString>
	writeString("3: Mostrar Ultima posición guradada EEPROM\r\n");
 12a:	82 e5       	ldi	r24, 0x52	; 82
 12c:	91 e0       	ldi	r25, 0x01	; 1
 12e:	0e 94 76 00 	call	0xec	; 0xec <writeString>
	writeString("==============================\r\n");
 132:	8f e7       	ldi	r24, 0x7F	; 127
 134:	91 e0       	ldi	r25, 0x01	; 1
 136:	0e 94 76 00 	call	0xec	; 0xec <writeString>
	writeString("\r\n");
 13a:	8b e3       	ldi	r24, 0x3B	; 59
 13c:	91 e0       	ldi	r25, 0x01	; 1
 13e:	0e 94 76 00 	call	0xec	; 0xec <writeString>
	writeString("\r\n");
 142:	8b e3       	ldi	r24, 0x3B	; 59
 144:	91 e0       	ldi	r25, 0x01	; 1
 146:	0e 94 76 00 	call	0xec	; 0xec <writeString>
	
	PORTB &= ~(1<<PORTB5); // apagar LED
 14a:	85 b1       	in	r24, 0x05	; 5
 14c:	8f 7d       	andi	r24, 0xDF	; 223
 14e:	85 b9       	out	0x05, r24	; 5
 150:	08 95       	ret

00000152 <main>:

// Main Function
//***********************************  MAIN   **************************************//
int main(void)
{
	cli();
 152:	f8 94       	cli
	//Entradas- y salidas declaración
	DDRB |= (1<<DDB5) | (1<<DDB4);
 154:	84 b1       	in	r24, 0x04	; 4
 156:	80 63       	ori	r24, 0x30	; 48
 158:	84 b9       	out	0x04, r24	; 4
	PORTB &= ~((1<<PORTB5) | (1<<PORTB4));
 15a:	85 b1       	in	r24, 0x05	; 5
 15c:	8f 7c       	andi	r24, 0xCF	; 207
 15e:	85 b9       	out	0x05, r24	; 5
	
	//inicializaciónes 
	intUART();//Comunicación UART
 160:	0e 94 5a 00 	call	0xb4	; 0xb4 <intUART>
	/*
	PWM1_Init(); // Servo 1 y 2 (Timer1)
	PWM3_Init();// Led manual con TImer 0
	*/
	
	Servo_Init();// CONTROL DE servomotores Timer 1
 164:	0e 94 75 02 	call	0x4ea	; 0x4ea <Servo_Init>
	ADC_Init();//ADC
 168:	0e 94 53 00 	call	0xa6	; 0xa6 <ADC_Init>
	
	
	
	sei();// BUENAS CONSTUMBRES
 16c:	78 94       	sei

	printMenu();
 16e:	0e 94 89 00 	call	0x112	; 0x112 <printMenu>
 172:	ff cf       	rjmp	.-2      	; 0x172 <main+0x20>

00000174 <__vector_18>:
			
*/
			
//Continuación del código
ISR(USART_RX_vect)
{
 174:	1f 92       	push	r1
 176:	0f 92       	push	r0
 178:	0f b6       	in	r0, 0x3f	; 63
 17a:	0f 92       	push	r0
 17c:	11 24       	eor	r1, r1
 17e:	2f 93       	push	r18
 180:	3f 93       	push	r19
 182:	4f 93       	push	r20
 184:	5f 93       	push	r21
 186:	6f 93       	push	r22
 188:	7f 93       	push	r23
 18a:	8f 93       	push	r24
 18c:	9f 93       	push	r25
 18e:	af 93       	push	r26
 190:	bf 93       	push	r27
 192:	cf 93       	push	r28
 194:	ef 93       	push	r30
 196:	ff 93       	push	r31
	char c = UDR0;
 198:	c0 91 c6 00 	lds	r28, 0x00C6	; 0x8000c6 <__TEXT_REGION_LENGTH__+0x7f80c6>
	writeChar(c);
 19c:	8c 2f       	mov	r24, r28
 19e:	0e 94 6f 00 	call	0xde	; 0xde <writeChar>

	// ENTER
	if (c == '\r' || c == '\n')
 1a2:	cd 30       	cpi	r28, 0x0D	; 13
 1a4:	19 f0       	breq	.+6      	; 0x1ac <__vector_18+0x38>
 1a6:	ca 30       	cpi	r28, 0x0A	; 10
 1a8:	09 f0       	breq	.+2      	; 0x1ac <__vector_18+0x38>
 1aa:	4c c1       	rjmp	.+664    	; 0x444 <__EEPROM_REGION_LENGTH__+0x44>
	{
		buffer[idx] = '\0';
 1ac:	e0 91 78 02 	lds	r30, 0x0278	; 0x800278 <__data_end>
 1b0:	f0 e0       	ldi	r31, 0x00	; 0
 1b2:	e8 57       	subi	r30, 0x78	; 120
 1b4:	fd 4f       	sbci	r31, 0xFD	; 253
 1b6:	10 82       	st	Z, r1
		writeString("\r\n");
 1b8:	8b e3       	ldi	r24, 0x3B	; 59
 1ba:	91 e0       	ldi	r25, 0x01	; 1
 1bc:	0e 94 76 00 	call	0xec	; 0xec <writeString>

		// ================= MENU =================
		if (modo == 0)
 1c0:	80 91 79 02 	lds	r24, 0x0279	; 0x800279 <modo>
 1c4:	81 11       	cpse	r24, r1
 1c6:	2c c0       	rjmp	.+88     	; 0x220 <__vector_18+0xac>
		{
			if (buffer[0] == '1')
 1c8:	80 91 88 02 	lds	r24, 0x0288	; 0x800288 <buffer>
 1cc:	81 33       	cpi	r24, 0x31	; 49
 1ce:	61 f4       	brne	.+24     	; 0x1e8 <__vector_18+0x74>
			{
				modo = 1;
 1d0:	81 e0       	ldi	r24, 0x01	; 1
 1d2:	80 93 79 02 	sts	0x0279, r24	; 0x800279 <modo>
				writeString("Modo OJOS\r\n");
 1d6:	80 ea       	ldi	r24, 0xA0	; 160
 1d8:	91 e0       	ldi	r25, 0x01	; 1
 1da:	0e 94 76 00 	call	0xec	; 0xec <writeString>
				writeString("I1,D1,I2,D2 + angulo | x salir\r\n");
 1de:	8c ea       	ldi	r24, 0xAC	; 172
 1e0:	91 e0       	ldi	r25, 0x01	; 1
 1e2:	0e 94 76 00 	call	0xec	; 0xec <writeString>
 1e6:	19 c0       	rjmp	.+50     	; 0x21a <__vector_18+0xa6>
			}
			else if (buffer[0] == '2')
 1e8:	82 33       	cpi	r24, 0x32	; 50
 1ea:	61 f4       	brne	.+24     	; 0x204 <__vector_18+0x90>
			{
				modo = 2;
 1ec:	82 e0       	ldi	r24, 0x02	; 2
 1ee:	80 93 79 02 	sts	0x0279, r24	; 0x800279 <modo>
				writeString("Modo PARPADOS\r\n");
 1f2:	8d ec       	ldi	r24, 0xCD	; 205
 1f4:	91 e0       	ldi	r25, 0x01	; 1
 1f6:	0e 94 76 00 	call	0xec	; 0xec <writeString>
				writeString("M1,M2 + angulo | x salir\r\n");
 1fa:	8d ed       	ldi	r24, 0xDD	; 221
 1fc:	91 e0       	ldi	r25, 0x01	; 1
 1fe:	0e 94 76 00 	call	0xec	; 0xec <writeString>
 202:	0b c0       	rjmp	.+22     	; 0x21a <__vector_18+0xa6>
			}
			else if (buffer[0] == '3')
 204:	83 33       	cpi	r24, 0x33	; 51
 206:	29 f4       	brne	.+10     	; 0x212 <__vector_18+0x9e>
			{
				writeString("EEPROM pendiente\r\n");
 208:	88 ef       	ldi	r24, 0xF8	; 248
 20a:	91 e0       	ldi	r25, 0x01	; 1
 20c:	0e 94 76 00 	call	0xec	; 0xec <writeString>
 210:	04 c0       	rjmp	.+8      	; 0x21a <__vector_18+0xa6>
			}
			else
			{
				writeString("Opcion invalida\r\n");
 212:	8b e0       	ldi	r24, 0x0B	; 11
 214:	92 e0       	ldi	r25, 0x02	; 2
 216:	0e 94 76 00 	call	0xec	; 0xec <writeString>
			}

			printMenu();
 21a:	0e 94 89 00 	call	0x112	; 0x112 <printMenu>
 21e:	0f c1       	rjmp	.+542    	; 0x43e <__EEPROM_REGION_LENGTH__+0x3e>
		}

		// ================= OJOS =================
		else if (modo == 1)
 220:	80 91 79 02 	lds	r24, 0x0279	; 0x800279 <modo>
 224:	81 30       	cpi	r24, 0x01	; 1
 226:	09 f0       	breq	.+2      	; 0x22a <__vector_18+0xb6>
 228:	aa c0       	rjmp	.+340    	; 0x37e <__vector_18+0x20a>
		{
			if (strncmp(buffer, "I1:", 3) == 0)
 22a:	43 e0       	ldi	r20, 0x03	; 3
 22c:	50 e0       	ldi	r21, 0x00	; 0
 22e:	6d e1       	ldi	r22, 0x1D	; 29
 230:	72 e0       	ldi	r23, 0x02	; 2
 232:	88 e8       	ldi	r24, 0x88	; 136
 234:	92 e0       	ldi	r25, 0x02	; 2
 236:	0e 94 4f 03 	call	0x69e	; 0x69e <strncmp>
 23a:	89 2b       	or	r24, r25
 23c:	e9 f4       	brne	.+58     	; 0x278 <__vector_18+0x104>
			{
				uint8_t ang = atoi(&buffer[3]);
 23e:	8b e8       	ldi	r24, 0x8B	; 139
 240:	92 e0       	ldi	r25, 0x02	; 2
 242:	0e 94 31 03 	call	0x662	; 0x662 <atoi>
 246:	c8 2f       	mov	r28, r24
				Servo_Set(0, ang);
 248:	68 2f       	mov	r22, r24
 24a:	80 e0       	ldi	r24, 0x00	; 0
 24c:	0e 94 98 02 	call	0x530	; 0x530 <Servo_Set>

				writeString("I1 -> ");
 250:	81 e2       	ldi	r24, 0x21	; 33
 252:	92 e0       	ldi	r25, 0x02	; 2
 254:	0e 94 76 00 	call	0xec	; 0xec <writeString>
    } else if (__radix < 2 || __radix > 36) {
	*__s = 0;
	return __s;
    } else {
	extern char *__itoa_ncheck (int, char *, unsigned char);
	return __itoa_ncheck (__val, __s, __radix);
 258:	4a e0       	ldi	r20, 0x0A	; 10
 25a:	6e e7       	ldi	r22, 0x7E	; 126
 25c:	72 e0       	ldi	r23, 0x02	; 2
 25e:	8c 2f       	mov	r24, r28
 260:	90 e0       	ldi	r25, 0x00	; 0
 262:	0e 94 5d 03 	call	0x6ba	; 0x6ba <__itoa_ncheck>
				itoa(ang, out, 10);
				writeString(out);
 266:	8e e7       	ldi	r24, 0x7E	; 126
 268:	92 e0       	ldi	r25, 0x02	; 2
 26a:	0e 94 76 00 	call	0xec	; 0xec <writeString>
				writeString("\r\n");
 26e:	8b e3       	ldi	r24, 0x3B	; 59
 270:	91 e0       	ldi	r25, 0x01	; 1
 272:	0e 94 76 00 	call	0xec	; 0xec <writeString>
 276:	e3 c0       	rjmp	.+454    	; 0x43e <__EEPROM_REGION_LENGTH__+0x3e>
			}
			else if (strncmp(buffer, "D1:", 3) == 0)
 278:	43 e0       	ldi	r20, 0x03	; 3
 27a:	50 e0       	ldi	r21, 0x00	; 0
 27c:	68 e2       	ldi	r22, 0x28	; 40
 27e:	72 e0       	ldi	r23, 0x02	; 2
 280:	88 e8       	ldi	r24, 0x88	; 136
 282:	92 e0       	ldi	r25, 0x02	; 2
 284:	0e 94 4f 03 	call	0x69e	; 0x69e <strncmp>
 288:	89 2b       	or	r24, r25
 28a:	e9 f4       	brne	.+58     	; 0x2c6 <__vector_18+0x152>
			{
				uint8_t ang = atoi(&buffer[3]);
 28c:	8b e8       	ldi	r24, 0x8B	; 139
 28e:	92 e0       	ldi	r25, 0x02	; 2
 290:	0e 94 31 03 	call	0x662	; 0x662 <atoi>
 294:	c8 2f       	mov	r28, r24
				Servo_Set(1, ang);
 296:	68 2f       	mov	r22, r24
 298:	81 e0       	ldi	r24, 0x01	; 1
 29a:	0e 94 98 02 	call	0x530	; 0x530 <Servo_Set>

				writeString("D1 -> ");
 29e:	8c e2       	ldi	r24, 0x2C	; 44
 2a0:	92 e0       	ldi	r25, 0x02	; 2
 2a2:	0e 94 76 00 	call	0xec	; 0xec <writeString>
 2a6:	4a e0       	ldi	r20, 0x0A	; 10
 2a8:	6e e7       	ldi	r22, 0x7E	; 126
 2aa:	72 e0       	ldi	r23, 0x02	; 2
 2ac:	8c 2f       	mov	r24, r28
 2ae:	90 e0       	ldi	r25, 0x00	; 0
 2b0:	0e 94 5d 03 	call	0x6ba	; 0x6ba <__itoa_ncheck>
				itoa(ang, out, 10);
				writeString(out);
 2b4:	8e e7       	ldi	r24, 0x7E	; 126
 2b6:	92 e0       	ldi	r25, 0x02	; 2
 2b8:	0e 94 76 00 	call	0xec	; 0xec <writeString>
				writeString("\r\n");
 2bc:	8b e3       	ldi	r24, 0x3B	; 59
 2be:	91 e0       	ldi	r25, 0x01	; 1
 2c0:	0e 94 76 00 	call	0xec	; 0xec <writeString>
 2c4:	bc c0       	rjmp	.+376    	; 0x43e <__EEPROM_REGION_LENGTH__+0x3e>
			}
			else if (strncmp(buffer, "I2:", 3) == 0)
 2c6:	43 e0       	ldi	r20, 0x03	; 3
 2c8:	50 e0       	ldi	r21, 0x00	; 0
 2ca:	63 e3       	ldi	r22, 0x33	; 51
 2cc:	72 e0       	ldi	r23, 0x02	; 2
 2ce:	88 e8       	ldi	r24, 0x88	; 136
 2d0:	92 e0       	ldi	r25, 0x02	; 2
 2d2:	0e 94 4f 03 	call	0x69e	; 0x69e <strncmp>
 2d6:	89 2b       	or	r24, r25
 2d8:	e9 f4       	brne	.+58     	; 0x314 <__vector_18+0x1a0>
			{
				uint8_t ang = atoi(&buffer[3]);
 2da:	8b e8       	ldi	r24, 0x8B	; 139
 2dc:	92 e0       	ldi	r25, 0x02	; 2
 2de:	0e 94 31 03 	call	0x662	; 0x662 <atoi>
 2e2:	c8 2f       	mov	r28, r24
				Servo_Set(2, ang);
 2e4:	68 2f       	mov	r22, r24
 2e6:	82 e0       	ldi	r24, 0x02	; 2
 2e8:	0e 94 98 02 	call	0x530	; 0x530 <Servo_Set>

				writeString("I2 -> ");
 2ec:	87 e3       	ldi	r24, 0x37	; 55
 2ee:	92 e0       	ldi	r25, 0x02	; 2
 2f0:	0e 94 76 00 	call	0xec	; 0xec <writeString>
 2f4:	4a e0       	ldi	r20, 0x0A	; 10
 2f6:	6e e7       	ldi	r22, 0x7E	; 126
 2f8:	72 e0       	ldi	r23, 0x02	; 2
 2fa:	8c 2f       	mov	r24, r28
 2fc:	90 e0       	ldi	r25, 0x00	; 0
 2fe:	0e 94 5d 03 	call	0x6ba	; 0x6ba <__itoa_ncheck>
				itoa(ang, out, 10);
				writeString(out);
 302:	8e e7       	ldi	r24, 0x7E	; 126
 304:	92 e0       	ldi	r25, 0x02	; 2
 306:	0e 94 76 00 	call	0xec	; 0xec <writeString>
				writeString("\r\n");
 30a:	8b e3       	ldi	r24, 0x3B	; 59
 30c:	91 e0       	ldi	r25, 0x01	; 1
 30e:	0e 94 76 00 	call	0xec	; 0xec <writeString>
 312:	95 c0       	rjmp	.+298    	; 0x43e <__EEPROM_REGION_LENGTH__+0x3e>
			}
			else if (strncmp(buffer, "D2:", 3) == 0)
 314:	43 e0       	ldi	r20, 0x03	; 3
 316:	50 e0       	ldi	r21, 0x00	; 0
 318:	6e e3       	ldi	r22, 0x3E	; 62
 31a:	72 e0       	ldi	r23, 0x02	; 2
 31c:	88 e8       	ldi	r24, 0x88	; 136
 31e:	92 e0       	ldi	r25, 0x02	; 2
 320:	0e 94 4f 03 	call	0x69e	; 0x69e <strncmp>
 324:	89 2b       	or	r24, r25
 326:	e9 f4       	brne	.+58     	; 0x362 <__vector_18+0x1ee>
			{
				uint8_t ang = atoi(&buffer[3]);
 328:	8b e8       	ldi	r24, 0x8B	; 139
 32a:	92 e0       	ldi	r25, 0x02	; 2
 32c:	0e 94 31 03 	call	0x662	; 0x662 <atoi>
 330:	c8 2f       	mov	r28, r24
				Servo_Set(3, ang);
 332:	68 2f       	mov	r22, r24
 334:	83 e0       	ldi	r24, 0x03	; 3
 336:	0e 94 98 02 	call	0x530	; 0x530 <Servo_Set>

				writeString("D2 -> ");
 33a:	82 e4       	ldi	r24, 0x42	; 66
 33c:	92 e0       	ldi	r25, 0x02	; 2
 33e:	0e 94 76 00 	call	0xec	; 0xec <writeString>
 342:	4a e0       	ldi	r20, 0x0A	; 10
 344:	6e e7       	ldi	r22, 0x7E	; 126
 346:	72 e0       	ldi	r23, 0x02	; 2
 348:	8c 2f       	mov	r24, r28
 34a:	90 e0       	ldi	r25, 0x00	; 0
 34c:	0e 94 5d 03 	call	0x6ba	; 0x6ba <__itoa_ncheck>
				itoa(ang, out, 10);
				writeString(out);
 350:	8e e7       	ldi	r24, 0x7E	; 126
 352:	92 e0       	ldi	r25, 0x02	; 2
 354:	0e 94 76 00 	call	0xec	; 0xec <writeString>
				writeString("\r\n");
 358:	8b e3       	ldi	r24, 0x3B	; 59
 35a:	91 e0       	ldi	r25, 0x01	; 1
 35c:	0e 94 76 00 	call	0xec	; 0xec <writeString>
 360:	6e c0       	rjmp	.+220    	; 0x43e <__EEPROM_REGION_LENGTH__+0x3e>
			}
			else if (buffer[0] == 'x')
 362:	80 91 88 02 	lds	r24, 0x0288	; 0x800288 <buffer>
 366:	88 37       	cpi	r24, 0x78	; 120
 368:	29 f4       	brne	.+10     	; 0x374 <__vector_18+0x200>
			{
				modo = 0;
 36a:	10 92 79 02 	sts	0x0279, r1	; 0x800279 <modo>
				printMenu();
 36e:	0e 94 89 00 	call	0x112	; 0x112 <printMenu>
 372:	65 c0       	rjmp	.+202    	; 0x43e <__EEPROM_REGION_LENGTH__+0x3e>
			}
			else
			{
				writeString("Comando invalido\r\n");
 374:	89 e4       	ldi	r24, 0x49	; 73
 376:	92 e0       	ldi	r25, 0x02	; 2
 378:	0e 94 76 00 	call	0xec	; 0xec <writeString>
 37c:	60 c0       	rjmp	.+192    	; 0x43e <__EEPROM_REGION_LENGTH__+0x3e>
			}
		}

		// ================= PARPADOS =================
		else if (modo == 2)
 37e:	80 91 79 02 	lds	r24, 0x0279	; 0x800279 <modo>
 382:	82 30       	cpi	r24, 0x02	; 2
 384:	09 f0       	breq	.+2      	; 0x388 <__vector_18+0x214>
 386:	5b c0       	rjmp	.+182    	; 0x43e <__EEPROM_REGION_LENGTH__+0x3e>
		{
			if (strncmp(buffer, "M1:", 3) == 0)
 388:	43 e0       	ldi	r20, 0x03	; 3
 38a:	50 e0       	ldi	r21, 0x00	; 0
 38c:	6c e5       	ldi	r22, 0x5C	; 92
 38e:	72 e0       	ldi	r23, 0x02	; 2
 390:	88 e8       	ldi	r24, 0x88	; 136
 392:	92 e0       	ldi	r25, 0x02	; 2
 394:	0e 94 4f 03 	call	0x69e	; 0x69e <strncmp>
 398:	89 2b       	or	r24, r25
 39a:	e9 f4       	brne	.+58     	; 0x3d6 <__vector_18+0x262>
			{
				uint8_t ang = atoi(&buffer[3]);
 39c:	8b e8       	ldi	r24, 0x8B	; 139
 39e:	92 e0       	ldi	r25, 0x02	; 2
 3a0:	0e 94 31 03 	call	0x662	; 0x662 <atoi>
 3a4:	c8 2f       	mov	r28, r24
				Servo_Set(4, ang);
 3a6:	68 2f       	mov	r22, r24
 3a8:	84 e0       	ldi	r24, 0x04	; 4
 3aa:	0e 94 98 02 	call	0x530	; 0x530 <Servo_Set>

				writeString("M1 -> ");
 3ae:	80 e6       	ldi	r24, 0x60	; 96
 3b0:	92 e0       	ldi	r25, 0x02	; 2
 3b2:	0e 94 76 00 	call	0xec	; 0xec <writeString>
 3b6:	4a e0       	ldi	r20, 0x0A	; 10
 3b8:	6e e7       	ldi	r22, 0x7E	; 126
 3ba:	72 e0       	ldi	r23, 0x02	; 2
 3bc:	8c 2f       	mov	r24, r28
 3be:	90 e0       	ldi	r25, 0x00	; 0
 3c0:	0e 94 5d 03 	call	0x6ba	; 0x6ba <__itoa_ncheck>
				itoa(ang, out, 10);
				writeString(out);
 3c4:	8e e7       	ldi	r24, 0x7E	; 126
 3c6:	92 e0       	ldi	r25, 0x02	; 2
 3c8:	0e 94 76 00 	call	0xec	; 0xec <writeString>
				writeString("\r\n");
 3cc:	8b e3       	ldi	r24, 0x3B	; 59
 3ce:	91 e0       	ldi	r25, 0x01	; 1
 3d0:	0e 94 76 00 	call	0xec	; 0xec <writeString>
 3d4:	34 c0       	rjmp	.+104    	; 0x43e <__EEPROM_REGION_LENGTH__+0x3e>
			}
			else if (strncmp(buffer, "M2:", 3) == 0)
 3d6:	43 e0       	ldi	r20, 0x03	; 3
 3d8:	50 e0       	ldi	r21, 0x00	; 0
 3da:	67 e6       	ldi	r22, 0x67	; 103
 3dc:	72 e0       	ldi	r23, 0x02	; 2
 3de:	88 e8       	ldi	r24, 0x88	; 136
 3e0:	92 e0       	ldi	r25, 0x02	; 2
 3e2:	0e 94 4f 03 	call	0x69e	; 0x69e <strncmp>
 3e6:	89 2b       	or	r24, r25
 3e8:	e9 f4       	brne	.+58     	; 0x424 <__EEPROM_REGION_LENGTH__+0x24>
			{
				uint8_t ang = atoi(&buffer[3]);
 3ea:	8b e8       	ldi	r24, 0x8B	; 139
 3ec:	92 e0       	ldi	r25, 0x02	; 2
 3ee:	0e 94 31 03 	call	0x662	; 0x662 <atoi>
 3f2:	c8 2f       	mov	r28, r24
				Servo_Set(5, ang);
 3f4:	68 2f       	mov	r22, r24
 3f6:	85 e0       	ldi	r24, 0x05	; 5
 3f8:	0e 94 98 02 	call	0x530	; 0x530 <Servo_Set>

				writeString("M2 -> ");
 3fc:	8b e6       	ldi	r24, 0x6B	; 107
 3fe:	92 e0       	ldi	r25, 0x02	; 2
 400:	0e 94 76 00 	call	0xec	; 0xec <writeString>
 404:	4a e0       	ldi	r20, 0x0A	; 10
 406:	6e e7       	ldi	r22, 0x7E	; 126
 408:	72 e0       	ldi	r23, 0x02	; 2
 40a:	8c 2f       	mov	r24, r28
 40c:	90 e0       	ldi	r25, 0x00	; 0
 40e:	0e 94 5d 03 	call	0x6ba	; 0x6ba <__itoa_ncheck>
				itoa(ang, out, 10);
				writeString(out);
 412:	8e e7       	ldi	r24, 0x7E	; 126
 414:	92 e0       	ldi	r25, 0x02	; 2
 416:	0e 94 76 00 	call	0xec	; 0xec <writeString>
				writeString("\r\n");
 41a:	8b e3       	ldi	r24, 0x3B	; 59
 41c:	91 e0       	ldi	r25, 0x01	; 1
 41e:	0e 94 76 00 	call	0xec	; 0xec <writeString>
 422:	0d c0       	rjmp	.+26     	; 0x43e <__EEPROM_REGION_LENGTH__+0x3e>
			}
			else if (buffer[0] == 'x')
 424:	80 91 88 02 	lds	r24, 0x0288	; 0x800288 <buffer>
 428:	88 37       	cpi	r24, 0x78	; 120
 42a:	29 f4       	brne	.+10     	; 0x436 <__EEPROM_REGION_LENGTH__+0x36>
			{
				modo = 0;
 42c:	10 92 79 02 	sts	0x0279, r1	; 0x800279 <modo>
				printMenu();
 430:	0e 94 89 00 	call	0x112	; 0x112 <printMenu>
 434:	04 c0       	rjmp	.+8      	; 0x43e <__EEPROM_REGION_LENGTH__+0x3e>
			}
			else
			{
				writeString("Comando invalido\r\n");
 436:	89 e4       	ldi	r24, 0x49	; 73
 438:	92 e0       	ldi	r25, 0x02	; 2
 43a:	0e 94 76 00 	call	0xec	; 0xec <writeString>
			}
		}

		idx = 0;
 43e:	10 92 78 02 	sts	0x0278, r1	; 0x800278 <__data_end>
 442:	0e c0       	rjmp	.+28     	; 0x460 <__EEPROM_REGION_LENGTH__+0x60>
	}
	else
	{
		if (idx < sizeof(buffer)-1)
 444:	80 91 78 02 	lds	r24, 0x0278	; 0x800278 <__data_end>
 448:	83 31       	cpi	r24, 0x13	; 19
 44a:	50 f4       	brcc	.+20     	; 0x460 <__EEPROM_REGION_LENGTH__+0x60>
		{
			buffer[idx++] = c;
 44c:	e0 91 78 02 	lds	r30, 0x0278	; 0x800278 <__data_end>
 450:	81 e0       	ldi	r24, 0x01	; 1
 452:	8e 0f       	add	r24, r30
 454:	80 93 78 02 	sts	0x0278, r24	; 0x800278 <__data_end>
 458:	f0 e0       	ldi	r31, 0x00	; 0
 45a:	e8 57       	subi	r30, 0x78	; 120
 45c:	fd 4f       	sbci	r31, 0xFD	; 253
 45e:	c0 83       	st	Z, r28
		}
	}
}
 460:	ff 91       	pop	r31
 462:	ef 91       	pop	r30
 464:	cf 91       	pop	r28
 466:	bf 91       	pop	r27
 468:	af 91       	pop	r26
 46a:	9f 91       	pop	r25
 46c:	8f 91       	pop	r24
 46e:	7f 91       	pop	r23
 470:	6f 91       	pop	r22
 472:	5f 91       	pop	r21
 474:	4f 91       	pop	r20
 476:	3f 91       	pop	r19
 478:	2f 91       	pop	r18
 47a:	0f 90       	pop	r0
 47c:	0f be       	out	0x3f, r0	; 63
 47e:	0f 90       	pop	r0
 480:	1f 90       	pop	r1
 482:	18 95       	reti

00000484 <__vector_16>:
	pwm_duty = duty;
}

// ISR del Timer0
ISR(TIMER0_OVF_vect) //cada vez que pasa de 255 a 0
{
 484:	1f 92       	push	r1
 486:	0f 92       	push	r0
 488:	0f b6       	in	r0, 0x3f	; 63
 48a:	0f 92       	push	r0
 48c:	11 24       	eor	r1, r1
 48e:	8f 93       	push	r24
 490:	9f 93       	push	r25
	pwm_counter++;
 492:	80 91 7b 02 	lds	r24, 0x027B	; 0x80027b <pwm_counter>
 496:	8f 5f       	subi	r24, 0xFF	; 255
 498:	80 93 7b 02 	sts	0x027B, r24	; 0x80027b <pwm_counter>

	if (pwm_counter == 0)
 49c:	80 91 7b 02 	lds	r24, 0x027B	; 0x80027b <pwm_counter>
 4a0:	81 11       	cpse	r24, r1
 4a2:	03 c0       	rjmp	.+6      	; 0x4aa <__vector_16+0x26>
	{
		PORTB |= (1 << PB4); // ON
 4a4:	85 b1       	in	r24, 0x05	; 5
 4a6:	80 61       	ori	r24, 0x10	; 16
 4a8:	85 b9       	out	0x05, r24	; 5
	}

	if (pwm_counter == pwm_duty) //cuando llega al valor cae
 4aa:	90 91 7b 02 	lds	r25, 0x027B	; 0x80027b <pwm_counter>
 4ae:	80 91 7a 02 	lds	r24, 0x027A	; 0x80027a <pwm_duty>
 4b2:	98 13       	cpse	r25, r24
 4b4:	03 c0       	rjmp	.+6      	; 0x4bc <__vector_16+0x38>
	{
		PORTB &= ~(1 << PB4); // OFF
 4b6:	85 b1       	in	r24, 0x05	; 5
 4b8:	8f 7e       	andi	r24, 0xEF	; 239
 4ba:	85 b9       	out	0x05, r24	; 5
	}
 4bc:	9f 91       	pop	r25
 4be:	8f 91       	pop	r24
 4c0:	0f 90       	pop	r0
 4c2:	0f be       	out	0x3f, r0	; 63
 4c4:	0f 90       	pop	r0
 4c6:	1f 90       	pop	r1
 4c8:	18 95       	reti

000004ca <Servo_Map>:
// ================= FUNCIONES PRIVADAS =================

// convertir ángulo a ticks
static uint16_t Servo_Map(uint8_t ang)
{
	return 2000 + ((uint32_t)ang * 2000) / 180;
 4ca:	28 2f       	mov	r18, r24
 4cc:	30 e0       	ldi	r19, 0x00	; 0
 4ce:	a0 ed       	ldi	r26, 0xD0	; 208
 4d0:	b7 e0       	ldi	r27, 0x07	; 7
 4d2:	0e 94 22 03 	call	0x644	; 0x644 <__umulhisi3>
 4d6:	24 eb       	ldi	r18, 0xB4	; 180
 4d8:	30 e0       	ldi	r19, 0x00	; 0
 4da:	40 e0       	ldi	r20, 0x00	; 0
 4dc:	50 e0       	ldi	r21, 0x00	; 0
 4de:	0e 94 00 03 	call	0x600	; 0x600 <__udivmodsi4>
}
 4e2:	c9 01       	movw	r24, r18
 4e4:	80 53       	subi	r24, 0x30	; 48
 4e6:	98 4f       	sbci	r25, 0xF8	; 248
 4e8:	08 95       	ret

000004ea <Servo_Init>:
// ================= FUNCIONES PÚBLICAS =================

void Servo_Init(void)
{
	// Pines como salida
	DDRD |= (1<<PORTD2)|(1<<PORTD3)|(1<<PORTD4)|(1<<PORTD5)|(1<<PORTD6)|(1<<PORTD7);
 4ea:	8a b1       	in	r24, 0x0a	; 10
 4ec:	8c 6f       	ori	r24, 0xFC	; 252
 4ee:	8a b9       	out	0x0a, r24	; 10

	// Timer1 CTC
	TCCR1A = 0;
 4f0:	10 92 80 00 	sts	0x0080, r1	; 0x800080 <__TEXT_REGION_LENGTH__+0x7f8080>
	TCCR1B = (1<<WGM12) | (1<<CS11); // prescaler 8
 4f4:	8a e0       	ldi	r24, 0x0A	; 10
 4f6:	80 93 81 00 	sts	0x0081, r24	; 0x800081 <__TEXT_REGION_LENGTH__+0x7f8081>

	OCR1A = 3000;
 4fa:	88 eb       	ldi	r24, 0xB8	; 184
 4fc:	9b e0       	ldi	r25, 0x0B	; 11
 4fe:	90 93 89 00 	sts	0x0089, r25	; 0x800089 <__TEXT_REGION_LENGTH__+0x7f8089>
 502:	80 93 88 00 	sts	0x0088, r24	; 0x800088 <__TEXT_REGION_LENGTH__+0x7f8088>
	TIMSK1 |= (1<<OCIE1A);
 506:	ef e6       	ldi	r30, 0x6F	; 111
 508:	f0 e0       	ldi	r31, 0x00	; 0
 50a:	80 81       	ld	r24, Z
 50c:	82 60       	ori	r24, 0x02	; 2
 50e:	80 83       	st	Z, r24
	// Revisar el cambio
	for (uint8_t i = 0; i < NUM_SERVOS; i++)
 510:	80 e0       	ldi	r24, 0x00	; 0
 512:	0b c0       	rjmp	.+22     	; 0x52a <Servo_Init+0x40>
	{
		servo_ticks[i] = 3000; // ~1.5 ms (posición neutra)
 514:	e8 2f       	mov	r30, r24
 516:	f0 e0       	ldi	r31, 0x00	; 0
 518:	ee 0f       	add	r30, r30
 51a:	ff 1f       	adc	r31, r31
 51c:	e4 56       	subi	r30, 0x64	; 100
 51e:	fd 4f       	sbci	r31, 0xFD	; 253
 520:	28 eb       	ldi	r18, 0xB8	; 184
 522:	3b e0       	ldi	r19, 0x0B	; 11
 524:	31 83       	std	Z+1, r19	; 0x01
 526:	20 83       	st	Z, r18
	TCCR1B = (1<<WGM12) | (1<<CS11); // prescaler 8

	OCR1A = 3000;
	TIMSK1 |= (1<<OCIE1A);
	// Revisar el cambio
	for (uint8_t i = 0; i < NUM_SERVOS; i++)
 528:	8f 5f       	subi	r24, 0xFF	; 255
 52a:	86 30       	cpi	r24, 0x06	; 6
 52c:	98 f3       	brcs	.-26     	; 0x514 <Servo_Init+0x2a>
	{
		servo_ticks[i] = 3000; // ~1.5 ms (posición neutra)
	}
	//
}
 52e:	08 95       	ret

00000530 <Servo_Set>:

void Servo_Set(uint8_t id, uint8_t ang)
{
 530:	cf 93       	push	r28
 532:	df 93       	push	r29
	if (id < NUM_SERVOS)
 534:	86 30       	cpi	r24, 0x06	; 6
 536:	58 f4       	brcc	.+22     	; 0x54e <Servo_Set+0x1e>
	{
		servo_ticks[id] = Servo_Map(ang);
 538:	c8 2f       	mov	r28, r24
 53a:	d0 e0       	ldi	r29, 0x00	; 0
 53c:	86 2f       	mov	r24, r22
 53e:	0e 94 65 02 	call	0x4ca	; 0x4ca <Servo_Map>
 542:	cc 0f       	add	r28, r28
 544:	dd 1f       	adc	r29, r29
 546:	c4 56       	subi	r28, 0x64	; 100
 548:	dd 4f       	sbci	r29, 0xFD	; 253
 54a:	99 83       	std	Y+1, r25	; 0x01
 54c:	88 83       	st	Y, r24
	}
}
 54e:	df 91       	pop	r29
 550:	cf 91       	pop	r28
 552:	08 95       	ret

00000554 <__vector_11>:

// ================= ISR =================

ISR(TIMER1_COMPA_vect)
{
 554:	1f 92       	push	r1
 556:	0f 92       	push	r0
 558:	0f b6       	in	r0, 0x3f	; 63
 55a:	0f 92       	push	r0
 55c:	11 24       	eor	r1, r1
 55e:	8f 93       	push	r24
 560:	9f 93       	push	r25
 562:	ef 93       	push	r30
 564:	ff 93       	push	r31
	static uint8_t estado = 0;

	if (estado == 0)
 566:	80 91 7c 02 	lds	r24, 0x027C	; 0x80027c <estado.1628>
 56a:	81 11       	cpse	r24, r1
 56c:	1a c0       	rjmp	.+52     	; 0x5a2 <__vector_11+0x4e>
	{
		PORTD |= servo_pins[servo_index];
 56e:	e0 91 7d 02 	lds	r30, 0x027D	; 0x80027d <servo_index>
 572:	f0 e0       	ldi	r31, 0x00	; 0
 574:	ee 58       	subi	r30, 0x8E	; 142
 576:	fd 4f       	sbci	r31, 0xFD	; 253
 578:	90 81       	ld	r25, Z
 57a:	8b b1       	in	r24, 0x0b	; 11
 57c:	89 2b       	or	r24, r25
 57e:	8b b9       	out	0x0b, r24	; 11
		OCR1A = servo_ticks[servo_index];
 580:	e0 91 7d 02 	lds	r30, 0x027D	; 0x80027d <servo_index>
 584:	f0 e0       	ldi	r31, 0x00	; 0
 586:	ee 0f       	add	r30, r30
 588:	ff 1f       	adc	r31, r31
 58a:	e4 56       	subi	r30, 0x64	; 100
 58c:	fd 4f       	sbci	r31, 0xFD	; 253
 58e:	80 81       	ld	r24, Z
 590:	91 81       	ldd	r25, Z+1	; 0x01
 592:	90 93 89 00 	sts	0x0089, r25	; 0x800089 <__TEXT_REGION_LENGTH__+0x7f8089>
 596:	80 93 88 00 	sts	0x0088, r24	; 0x800088 <__TEXT_REGION_LENGTH__+0x7f8088>
		estado = 1;
 59a:	81 e0       	ldi	r24, 0x01	; 1
 59c:	80 93 7c 02 	sts	0x027C, r24	; 0x80027c <estado.1628>
 5a0:	26 c0       	rjmp	.+76     	; 0x5ee <__vector_11+0x9a>
	}
	else
	{
		PORTD &= ~servo_pins[servo_index];
 5a2:	e0 91 7d 02 	lds	r30, 0x027D	; 0x80027d <servo_index>
 5a6:	f0 e0       	ldi	r31, 0x00	; 0
 5a8:	ee 58       	subi	r30, 0x8E	; 142
 5aa:	fd 4f       	sbci	r31, 0xFD	; 253
 5ac:	80 81       	ld	r24, Z
 5ae:	90 e0       	ldi	r25, 0x00	; 0
 5b0:	80 95       	com	r24
 5b2:	90 95       	com	r25
 5b4:	9b b1       	in	r25, 0x0b	; 11
 5b6:	89 23       	and	r24, r25
 5b8:	8b b9       	out	0x0b, r24	; 11

		servo_index++;
 5ba:	80 91 7d 02 	lds	r24, 0x027D	; 0x80027d <servo_index>
 5be:	8f 5f       	subi	r24, 0xFF	; 255
 5c0:	80 93 7d 02 	sts	0x027D, r24	; 0x80027d <servo_index>

		if (servo_index >= NUM_SERVOS)
 5c4:	80 91 7d 02 	lds	r24, 0x027D	; 0x80027d <servo_index>
 5c8:	86 30       	cpi	r24, 0x06	; 6
 5ca:	48 f0       	brcs	.+18     	; 0x5de <__vector_11+0x8a>
		{
			servo_index = 0;
 5cc:	10 92 7d 02 	sts	0x027D, r1	; 0x80027d <servo_index>
			OCR1A = 40000; // completar ciclo
 5d0:	80 e4       	ldi	r24, 0x40	; 64
 5d2:	9c e9       	ldi	r25, 0x9C	; 156
 5d4:	90 93 89 00 	sts	0x0089, r25	; 0x800089 <__TEXT_REGION_LENGTH__+0x7f8089>
 5d8:	80 93 88 00 	sts	0x0088, r24	; 0x800088 <__TEXT_REGION_LENGTH__+0x7f8088>
 5dc:	06 c0       	rjmp	.+12     	; 0x5ea <__vector_11+0x96>
		}
		else
		{
			OCR1A = 2000;
 5de:	80 ed       	ldi	r24, 0xD0	; 208
 5e0:	97 e0       	ldi	r25, 0x07	; 7
 5e2:	90 93 89 00 	sts	0x0089, r25	; 0x800089 <__TEXT_REGION_LENGTH__+0x7f8089>
 5e6:	80 93 88 00 	sts	0x0088, r24	; 0x800088 <__TEXT_REGION_LENGTH__+0x7f8088>
		}

		estado = 0;
 5ea:	10 92 7c 02 	sts	0x027C, r1	; 0x80027c <estado.1628>
	}
 5ee:	ff 91       	pop	r31
 5f0:	ef 91       	pop	r30
 5f2:	9f 91       	pop	r25
 5f4:	8f 91       	pop	r24
 5f6:	0f 90       	pop	r0
 5f8:	0f be       	out	0x3f, r0	; 63
 5fa:	0f 90       	pop	r0
 5fc:	1f 90       	pop	r1
 5fe:	18 95       	reti

00000600 <__udivmodsi4>:
 600:	a1 e2       	ldi	r26, 0x21	; 33
 602:	1a 2e       	mov	r1, r26
 604:	aa 1b       	sub	r26, r26
 606:	bb 1b       	sub	r27, r27
 608:	fd 01       	movw	r30, r26
 60a:	0d c0       	rjmp	.+26     	; 0x626 <__udivmodsi4_ep>

0000060c <__udivmodsi4_loop>:
 60c:	aa 1f       	adc	r26, r26
 60e:	bb 1f       	adc	r27, r27
 610:	ee 1f       	adc	r30, r30
 612:	ff 1f       	adc	r31, r31
 614:	a2 17       	cp	r26, r18
 616:	b3 07       	cpc	r27, r19
 618:	e4 07       	cpc	r30, r20
 61a:	f5 07       	cpc	r31, r21
 61c:	20 f0       	brcs	.+8      	; 0x626 <__udivmodsi4_ep>
 61e:	a2 1b       	sub	r26, r18
 620:	b3 0b       	sbc	r27, r19
 622:	e4 0b       	sbc	r30, r20
 624:	f5 0b       	sbc	r31, r21

00000626 <__udivmodsi4_ep>:
 626:	66 1f       	adc	r22, r22
 628:	77 1f       	adc	r23, r23
 62a:	88 1f       	adc	r24, r24
 62c:	99 1f       	adc	r25, r25
 62e:	1a 94       	dec	r1
 630:	69 f7       	brne	.-38     	; 0x60c <__udivmodsi4_loop>
 632:	60 95       	com	r22
 634:	70 95       	com	r23
 636:	80 95       	com	r24
 638:	90 95       	com	r25
 63a:	9b 01       	movw	r18, r22
 63c:	ac 01       	movw	r20, r24
 63e:	bd 01       	movw	r22, r26
 640:	cf 01       	movw	r24, r30
 642:	08 95       	ret

00000644 <__umulhisi3>:
 644:	a2 9f       	mul	r26, r18
 646:	b0 01       	movw	r22, r0
 648:	b3 9f       	mul	r27, r19
 64a:	c0 01       	movw	r24, r0
 64c:	a3 9f       	mul	r26, r19
 64e:	70 0d       	add	r23, r0
 650:	81 1d       	adc	r24, r1
 652:	11 24       	eor	r1, r1
 654:	91 1d       	adc	r25, r1
 656:	b2 9f       	mul	r27, r18
 658:	70 0d       	add	r23, r0
 65a:	81 1d       	adc	r24, r1
 65c:	11 24       	eor	r1, r1
 65e:	91 1d       	adc	r25, r1
 660:	08 95       	ret

00000662 <atoi>:
 662:	fc 01       	movw	r30, r24
 664:	88 27       	eor	r24, r24
 666:	99 27       	eor	r25, r25
 668:	e8 94       	clt
 66a:	21 91       	ld	r18, Z+
 66c:	20 32       	cpi	r18, 0x20	; 32
 66e:	e9 f3       	breq	.-6      	; 0x66a <atoi+0x8>
 670:	29 30       	cpi	r18, 0x09	; 9
 672:	10 f0       	brcs	.+4      	; 0x678 <atoi+0x16>
 674:	2e 30       	cpi	r18, 0x0E	; 14
 676:	c8 f3       	brcs	.-14     	; 0x66a <atoi+0x8>
 678:	2b 32       	cpi	r18, 0x2B	; 43
 67a:	41 f0       	breq	.+16     	; 0x68c <atoi+0x2a>
 67c:	2d 32       	cpi	r18, 0x2D	; 45
 67e:	39 f4       	brne	.+14     	; 0x68e <atoi+0x2c>
 680:	68 94       	set
 682:	04 c0       	rjmp	.+8      	; 0x68c <atoi+0x2a>
 684:	0e 94 68 03 	call	0x6d0	; 0x6d0 <__mulhi_const_10>
 688:	82 0f       	add	r24, r18
 68a:	91 1d       	adc	r25, r1
 68c:	21 91       	ld	r18, Z+
 68e:	20 53       	subi	r18, 0x30	; 48
 690:	2a 30       	cpi	r18, 0x0A	; 10
 692:	c0 f3       	brcs	.-16     	; 0x684 <atoi+0x22>
 694:	1e f4       	brtc	.+6      	; 0x69c <atoi+0x3a>
 696:	90 95       	com	r25
 698:	81 95       	neg	r24
 69a:	9f 4f       	sbci	r25, 0xFF	; 255
 69c:	08 95       	ret

0000069e <strncmp>:
 69e:	fb 01       	movw	r30, r22
 6a0:	dc 01       	movw	r26, r24
 6a2:	41 50       	subi	r20, 0x01	; 1
 6a4:	50 40       	sbci	r21, 0x00	; 0
 6a6:	30 f0       	brcs	.+12     	; 0x6b4 <strncmp+0x16>
 6a8:	8d 91       	ld	r24, X+
 6aa:	01 90       	ld	r0, Z+
 6ac:	80 19       	sub	r24, r0
 6ae:	19 f4       	brne	.+6      	; 0x6b6 <strncmp+0x18>
 6b0:	00 20       	and	r0, r0
 6b2:	b9 f7       	brne	.-18     	; 0x6a2 <strncmp+0x4>
 6b4:	88 1b       	sub	r24, r24
 6b6:	99 0b       	sbc	r25, r25
 6b8:	08 95       	ret

000006ba <__itoa_ncheck>:
 6ba:	bb 27       	eor	r27, r27
 6bc:	4a 30       	cpi	r20, 0x0A	; 10
 6be:	31 f4       	brne	.+12     	; 0x6cc <__itoa_ncheck+0x12>
 6c0:	99 23       	and	r25, r25
 6c2:	22 f4       	brpl	.+8      	; 0x6cc <__itoa_ncheck+0x12>
 6c4:	bd e2       	ldi	r27, 0x2D	; 45
 6c6:	90 95       	com	r25
 6c8:	81 95       	neg	r24
 6ca:	9f 4f       	sbci	r25, 0xFF	; 255
 6cc:	0c 94 71 03 	jmp	0x6e2	; 0x6e2 <__utoa_common>

000006d0 <__mulhi_const_10>:
 6d0:	7a e0       	ldi	r23, 0x0A	; 10
 6d2:	97 9f       	mul	r25, r23
 6d4:	90 2d       	mov	r25, r0
 6d6:	87 9f       	mul	r24, r23
 6d8:	80 2d       	mov	r24, r0
 6da:	91 0d       	add	r25, r1
 6dc:	11 24       	eor	r1, r1
 6de:	08 95       	ret

000006e0 <__utoa_ncheck>:
 6e0:	bb 27       	eor	r27, r27

000006e2 <__utoa_common>:
 6e2:	fb 01       	movw	r30, r22
 6e4:	55 27       	eor	r21, r21
 6e6:	aa 27       	eor	r26, r26
 6e8:	88 0f       	add	r24, r24
 6ea:	99 1f       	adc	r25, r25
 6ec:	aa 1f       	adc	r26, r26
 6ee:	a4 17       	cp	r26, r20
 6f0:	10 f0       	brcs	.+4      	; 0x6f6 <__utoa_common+0x14>
 6f2:	a4 1b       	sub	r26, r20
 6f4:	83 95       	inc	r24
 6f6:	50 51       	subi	r21, 0x10	; 16
 6f8:	b9 f7       	brne	.-18     	; 0x6e8 <__utoa_common+0x6>
 6fa:	a0 5d       	subi	r26, 0xD0	; 208
 6fc:	aa 33       	cpi	r26, 0x3A	; 58
 6fe:	08 f0       	brcs	.+2      	; 0x702 <__utoa_common+0x20>
 700:	a9 5d       	subi	r26, 0xD9	; 217
 702:	a1 93       	st	Z+, r26
 704:	00 97       	sbiw	r24, 0x00	; 0
 706:	79 f7       	brne	.-34     	; 0x6e6 <__utoa_common+0x4>
 708:	b1 11       	cpse	r27, r1
 70a:	b1 93       	st	Z+, r27
 70c:	11 92       	st	Z+, r1
 70e:	cb 01       	movw	r24, r22
 710:	0c 94 8a 03 	jmp	0x714	; 0x714 <strrev>

00000714 <strrev>:
 714:	dc 01       	movw	r26, r24
 716:	fc 01       	movw	r30, r24
 718:	67 2f       	mov	r22, r23
 71a:	71 91       	ld	r23, Z+
 71c:	77 23       	and	r23, r23
 71e:	e1 f7       	brne	.-8      	; 0x718 <strrev+0x4>
 720:	32 97       	sbiw	r30, 0x02	; 2
 722:	04 c0       	rjmp	.+8      	; 0x72c <strrev+0x18>
 724:	7c 91       	ld	r23, X
 726:	6d 93       	st	X+, r22
 728:	70 83       	st	Z, r23
 72a:	62 91       	ld	r22, -Z
 72c:	ae 17       	cp	r26, r30
 72e:	bf 07       	cpc	r27, r31
 730:	c8 f3       	brcs	.-14     	; 0x724 <strrev+0x10>
 732:	08 95       	ret

00000734 <_exit>:
 734:	f8 94       	cli

00000736 <__stop_program>:
 736:	ff cf       	rjmp	.-2      	; 0x736 <__stop_program>
